ARM GAS  /var/folders/lr/lj34qkqj2c73hcmf5705x8480000gn/T//ccIJufSS.s 			page 1


   1              		.cpu cortex-m4
   2              		.arch armv7e-m
   3              		.fpu fpv4-sp-d16
   4              		.eabi_attribute 27, 1
   5              		.eabi_attribute 28, 1
   6              		.eabi_attribute 20, 1
   7              		.eabi_attribute 21, 1
   8              		.eabi_attribute 23, 3
   9              		.eabi_attribute 24, 1
  10              		.eabi_attribute 25, 1
  11              		.eabi_attribute 26, 1
  12              		.eabi_attribute 30, 1
  13              		.eabi_attribute 34, 1
  14              		.eabi_attribute 18, 4
  15              		.file	"bmp280.c"
  16              		.text
  17              	.Ltext0:
  18              		.cfi_sections	.debug_frame
  19              		.file 1 "Core/Src/bmp280.c"
  20              		.section	.text.bmp280_read_sync,"ax",%progbits
  21              		.align	1
  22              		.syntax unified
  23              		.thumb
  24              		.thumb_func
  26              	bmp280_read_sync:
  27              	.LVL0:
  28              	.LFB133:
   1:Core/Src/bmp280.c **** /*
   2:Core/Src/bmp280.c ****  * bmp280.c
   3:Core/Src/bmp280.c ****  *
   4:Core/Src/bmp280.c ****  *  Created on: Jun 9, 2023
   5:Core/Src/bmp280.c ****  *      Author: ebusc
   6:Core/Src/bmp280.c ****  */
   7:Core/Src/bmp280.c **** 
   8:Core/Src/bmp280.c **** #include "bmp280.h"
   9:Core/Src/bmp280.c **** 
  10:Core/Src/bmp280.c **** #include "main.h"
  11:Core/Src/bmp280.c **** #include <string.h>
  12:Core/Src/bmp280.c **** 
  13:Core/Src/bmp280.c **** extern SPI_HandleTypeDef hspi1;
  14:Core/Src/bmp280.c **** extern DMA_HandleTypeDef hdma_spi1_rx;
  15:Core/Src/bmp280.c **** extern DMA_HandleTypeDef hdma_spi1_tx;
  16:Core/Src/bmp280.c **** 
  17:Core/Src/bmp280.c **** #define BMP280_ID_ADDR 0xD0
  18:Core/Src/bmp280.c **** #define BMP280_RESET_ADDR 0xE0
  19:Core/Src/bmp280.c **** #define BMP280_CTRL_MEAS_ADDR 0xF4
  20:Core/Src/bmp280.c **** #define BMP280_CONFIG_ADDR 0xF5
  21:Core/Src/bmp280.c **** #define BMP280_PRESS_ADDR_MSB 0xF7
  22:Core/Src/bmp280.c **** #define BMP280_PRESS_ADDR_LSB 0xF8
  23:Core/Src/bmp280.c **** #define BMP280_PRESS_ADDR_XLSB 0xF9
  24:Core/Src/bmp280.c **** #define BMP280_TEMP_ADDR_MSB 0xFA
  25:Core/Src/bmp280.c **** #define BMP280_TEMP_ADDR_LSB 0xFB
  26:Core/Src/bmp280.c **** #define BMP280_TEMP_ADDR_XLSB 0xFC
  27:Core/Src/bmp280.c **** 
  28:Core/Src/bmp280.c **** #define BUF_SIZE 32
  29:Core/Src/bmp280.c **** static uint8_t wrbuf[BUF_SIZE] = {0};
  30:Core/Src/bmp280.c **** static uint8_t rdbuf[BUF_SIZE] = {0};
ARM GAS  /var/folders/lr/lj34qkqj2c73hcmf5705x8480000gn/T//ccIJufSS.s 			page 2


  31:Core/Src/bmp280.c **** static uint32_t rdLen = 0, wrLen = 0;
  32:Core/Src/bmp280.c **** bmp_cplt_callback_t userRxCb = NULL, userTxCb = NULL;
  33:Core/Src/bmp280.c **** 
  34:Core/Src/bmp280.c **** typedef enum
  35:Core/Src/bmp280.c **** {
  36:Core/Src/bmp280.c **** 	BMP280_IDLE,
  37:Core/Src/bmp280.c **** 	BMP280_GET_ID,
  38:Core/Src/bmp280.c **** 	BMP280_RESET,
  39:Core/Src/bmp280.c **** 	BMP280_SET_CTRL,
  40:Core/Src/bmp280.c **** 	BMP280_SET_CONFIG,
  41:Core/Src/bmp280.c **** 	BMP280_GET_TEMP,
  42:Core/Src/bmp280.c **** 	BMP280_GET_PRESS,
  43:Core/Src/bmp280.c **** 	BMP280_GET_PRESS_TEMP
  44:Core/Src/bmp280.c **** } bpm280_op_t;
  45:Core/Src/bmp280.c **** 
  46:Core/Src/bmp280.c **** struct
  47:Core/Src/bmp280.c **** {
  48:Core/Src/bmp280.c **** 	uint16_t digT1;
  49:Core/Src/bmp280.c **** 	int16_t digT2;
  50:Core/Src/bmp280.c **** 	int16_t digT3;
  51:Core/Src/bmp280.c **** 	uint16_t digP1;
  52:Core/Src/bmp280.c **** 	int16_t digP2;
  53:Core/Src/bmp280.c **** 	int16_t digP3;
  54:Core/Src/bmp280.c **** 	int16_t digP4;
  55:Core/Src/bmp280.c **** 	int16_t digP5;
  56:Core/Src/bmp280.c **** 	int16_t digP6;
  57:Core/Src/bmp280.c **** 	int16_t digP7;
  58:Core/Src/bmp280.c **** 	int16_t digP8;
  59:Core/Src/bmp280.c **** 	int16_t digP9;
  60:Core/Src/bmp280.c **** 
  61:Core/Src/bmp280.c **** 	int32_t var1;
  62:Core/Src/bmp280.c **** 	int32_t var2;
  63:Core/Src/bmp280.c **** 
  64:Core/Src/bmp280.c **** 	
  65:Core/Src/bmp280.c **** } trim_values;
  66:Core/Src/bmp280.c **** 
  67:Core/Src/bmp280.c **** bpm280_op_t currentOp = BMP280_IDLE;
  68:Core/Src/bmp280.c **** uint32_t currentTemp = 0;
  69:Core/Src/bmp280.c **** uint32_t currentPress = 0;
  70:Core/Src/bmp280.c **** 
  71:Core/Src/bmp280.c **** static uint8_t bmp280_write_async(bpm280_op_t op, uint8_t addr, uint8_t *data, size_t len)
  72:Core/Src/bmp280.c **** {
  73:Core/Src/bmp280.c **** 
  74:Core/Src/bmp280.c **** 	if (len + 1 > BUF_SIZE)
  75:Core/Src/bmp280.c **** 	{
  76:Core/Src/bmp280.c **** 		return HAL_ERROR;
  77:Core/Src/bmp280.c **** 	}
  78:Core/Src/bmp280.c **** 
  79:Core/Src/bmp280.c **** 	while (currentOp != BMP280_IDLE)
  80:Core/Src/bmp280.c **** 		;
  81:Core/Src/bmp280.c **** 	currentOp = op;
  82:Core/Src/bmp280.c **** 
  83:Core/Src/bmp280.c **** 	wrbuf[0] = addr;
  84:Core/Src/bmp280.c **** 	memcpy(wrbuf + 1, data, len);
  85:Core/Src/bmp280.c **** 
  86:Core/Src/bmp280.c **** 	wrLen = len + 1;
  87:Core/Src/bmp280.c **** 
ARM GAS  /var/folders/lr/lj34qkqj2c73hcmf5705x8480000gn/T//ccIJufSS.s 			page 3


  88:Core/Src/bmp280.c **** 	return HAL_SPI_Transmit_DMA(&hspi1, wrbuf, wrLen);
  89:Core/Src/bmp280.c **** }
  90:Core/Src/bmp280.c **** static uint8_t bmp280_read_async(bpm280_op_t op, uint8_t addr, uint8_t *data, size_t len)
  91:Core/Src/bmp280.c **** {
  92:Core/Src/bmp280.c **** 	if (len + 1 > BUF_SIZE)
  93:Core/Src/bmp280.c **** 	{
  94:Core/Src/bmp280.c **** 		return HAL_ERROR;
  95:Core/Src/bmp280.c **** 	}
  96:Core/Src/bmp280.c **** 
  97:Core/Src/bmp280.c **** 	while (currentOp != BMP280_IDLE)
  98:Core/Src/bmp280.c **** 		;
  99:Core/Src/bmp280.c **** 	currentOp = op;
 100:Core/Src/bmp280.c **** 
 101:Core/Src/bmp280.c **** 	memset(wrbuf, 0, BUF_SIZE);
 102:Core/Src/bmp280.c **** 
 103:Core/Src/bmp280.c **** 	wrbuf[0] = addr;
 104:Core/Src/bmp280.c **** 
 105:Core/Src/bmp280.c **** 	rdLen = len;
 106:Core/Src/bmp280.c **** 	return HAL_SPI_TransmitReceive_DMA(&hspi1, wrbuf, rdbuf, rdLen);
 107:Core/Src/bmp280.c **** }
 108:Core/Src/bmp280.c **** static uint8_t bmp280_write_sync(uint8_t addr, uint8_t *data, size_t len,
 109:Core/Src/bmp280.c **** 								 uint32_t timeout)
 110:Core/Src/bmp280.c **** {
 111:Core/Src/bmp280.c **** 
 112:Core/Src/bmp280.c **** 	wrLen = len + 1;
 113:Core/Src/bmp280.c **** 	// This may be faster to just combine the two?
 114:Core/Src/bmp280.c **** 	HAL_SPI_Transmit(&hspi1, &addr, 1, timeout);
 115:Core/Src/bmp280.c **** 	return HAL_SPI_Transmit(&hspi1, data, len, timeout);
 116:Core/Src/bmp280.c **** }
 117:Core/Src/bmp280.c **** static uint8_t bmp280_read_sync(uint8_t addr, uint8_t *data, size_t len, uint32_t timeout)
 118:Core/Src/bmp280.c **** {
  29              		.loc 1 118 1 view -0
  30              		.cfi_startproc
  31              		@ args = 0, pretend = 0, frame = 8
  32              		@ frame_needed = 0, uses_anonymous_args = 0
  33              		.loc 1 118 1 is_stmt 0 view .LVU1
  34 0000 2DE9F041 		push	{r4, r5, r6, r7, r8, lr}
  35              	.LCFI0:
  36              		.cfi_def_cfa_offset 24
  37              		.cfi_offset 4, -24
  38              		.cfi_offset 5, -20
  39              		.cfi_offset 6, -16
  40              		.cfi_offset 7, -12
  41              		.cfi_offset 8, -8
  42              		.cfi_offset 14, -4
  43 0004 82B0     		sub	sp, sp, #8
  44              	.LCFI1:
  45              		.cfi_def_cfa_offset 32
  46 0006 0E46     		mov	r6, r1
  47 0008 1446     		mov	r4, r2
  48 000a 1D46     		mov	r5, r3
  49 000c 8DF80700 		strb	r0, [sp, #7]
 119:Core/Src/bmp280.c **** 
 120:Core/Src/bmp280.c **** 	HAL_GPIO_WritePin(BMP_CS_GPIO_Port, BMP_CS_Pin, 0);
  50              		.loc 1 120 2 is_stmt 1 view .LVU2
  51 0010 104F     		ldr	r7, .L3
  52 0012 0022     		movs	r2, #0
ARM GAS  /var/folders/lr/lj34qkqj2c73hcmf5705x8480000gn/T//ccIJufSS.s 			page 4


  53              	.LVL1:
  54              		.loc 1 120 2 is_stmt 0 view .LVU3
  55 0014 0421     		movs	r1, #4
  56              	.LVL2:
  57              		.loc 1 120 2 view .LVU4
  58 0016 3846     		mov	r0, r7
  59              	.LVL3:
  60              		.loc 1 120 2 view .LVU5
  61 0018 FFF7FEFF 		bl	HAL_GPIO_WritePin
  62              	.LVL4:
 121:Core/Src/bmp280.c **** 
 122:Core/Src/bmp280.c **** 	rdLen = len;
  63              		.loc 1 122 2 is_stmt 1 view .LVU6
  64              		.loc 1 122 8 is_stmt 0 view .LVU7
  65 001c 0E4B     		ldr	r3, .L3+4
  66 001e 1C60     		str	r4, [r3]
 123:Core/Src/bmp280.c **** 	HAL_SPI_Transmit(&hspi1, &addr, 1, timeout);
  67              		.loc 1 123 2 is_stmt 1 view .LVU8
  68 0020 DFF83880 		ldr	r8, .L3+8
  69 0024 2B46     		mov	r3, r5
  70 0026 0122     		movs	r2, #1
  71 0028 0DF10701 		add	r1, sp, #7
  72 002c 4046     		mov	r0, r8
  73 002e FFF7FEFF 		bl	HAL_SPI_Transmit
  74              	.LVL5:
 124:Core/Src/bmp280.c **** 	uint8_t ret = HAL_SPI_Receive(&hspi1, data, len, timeout);
  75              		.loc 1 124 2 view .LVU9
  76              		.loc 1 124 16 is_stmt 0 view .LVU10
  77 0032 2B46     		mov	r3, r5
  78 0034 A2B2     		uxth	r2, r4
  79 0036 3146     		mov	r1, r6
  80 0038 4046     		mov	r0, r8
  81 003a FFF7FEFF 		bl	HAL_SPI_Receive
  82              	.LVL6:
  83 003e 0446     		mov	r4, r0
  84              	.LVL7:
 125:Core/Src/bmp280.c **** 	HAL_GPIO_WritePin(BMP_CS_GPIO_Port, BMP_CS_Pin, 1);
  85              		.loc 1 125 2 is_stmt 1 view .LVU11
  86 0040 0122     		movs	r2, #1
  87 0042 0421     		movs	r1, #4
  88 0044 3846     		mov	r0, r7
  89 0046 FFF7FEFF 		bl	HAL_GPIO_WritePin
  90              	.LVL8:
 126:Core/Src/bmp280.c **** 	return ret;
  91              		.loc 1 126 2 view .LVU12
 127:Core/Src/bmp280.c **** }
  92              		.loc 1 127 1 is_stmt 0 view .LVU13
  93 004a 2046     		mov	r0, r4
  94 004c 02B0     		add	sp, sp, #8
  95              	.LCFI2:
  96              		.cfi_def_cfa_offset 24
  97              		@ sp needed
  98 004e BDE8F081 		pop	{r4, r5, r6, r7, r8, pc}
  99              	.LVL9:
 100              	.L4:
 101              		.loc 1 127 1 view .LVU14
 102 0052 00BF     		.align	2
ARM GAS  /var/folders/lr/lj34qkqj2c73hcmf5705x8480000gn/T//ccIJufSS.s 			page 5


 103              	.L3:
 104 0054 000C0240 		.word	1073875968
 105 0058 00000000 		.word	rdLen
 106 005c 00000000 		.word	hspi1
 107              		.cfi_endproc
 108              	.LFE133:
 110              		.section	.text.bmp280_write_async,"ax",%progbits
 111              		.align	1
 112              		.syntax unified
 113              		.thumb
 114              		.thumb_func
 116              	bmp280_write_async:
 117              	.LVL10:
 118              	.LFB130:
  72:Core/Src/bmp280.c **** 
 119              		.loc 1 72 1 is_stmt 1 view -0
 120              		.cfi_startproc
 121              		@ args = 0, pretend = 0, frame = 0
 122              		@ frame_needed = 0, uses_anonymous_args = 0
  72:Core/Src/bmp280.c **** 
 123              		.loc 1 72 1 is_stmt 0 view .LVU16
 124 0000 38B5     		push	{r3, r4, r5, lr}
 125              	.LCFI3:
 126              		.cfi_def_cfa_offset 16
 127              		.cfi_offset 3, -16
 128              		.cfi_offset 4, -12
 129              		.cfi_offset 5, -8
 130              		.cfi_offset 14, -4
 131 0002 8C46     		mov	ip, r1
 132 0004 1146     		mov	r1, r2
 133              	.LVL11:
  72:Core/Src/bmp280.c **** 
 134              		.loc 1 72 1 view .LVU17
 135 0006 1A46     		mov	r2, r3
 136              	.LVL12:
  74:Core/Src/bmp280.c **** 	{
 137              		.loc 1 74 2 is_stmt 1 view .LVU18
  74:Core/Src/bmp280.c **** 	{
 138              		.loc 1 74 10 is_stmt 0 view .LVU19
 139 0008 5D1C     		adds	r5, r3, #1
  74:Core/Src/bmp280.c **** 	{
 140              		.loc 1 74 5 view .LVU20
 141 000a 202D     		cmp	r5, #32
 142 000c 13D8     		bhi	.L8
 143              	.L7:
  79:Core/Src/bmp280.c **** 		;
 144              		.loc 1 79 19 is_stmt 1 discriminator 1 view .LVU21
 145 000e 0B4C     		ldr	r4, .L10
 146 0010 2478     		ldrb	r4, [r4]	@ zero_extendqisi2
 147 0012 002C     		cmp	r4, #0
 148 0014 FBD1     		bne	.L7
  81:Core/Src/bmp280.c **** 
 149              		.loc 1 81 2 view .LVU22
  81:Core/Src/bmp280.c **** 
 150              		.loc 1 81 12 is_stmt 0 view .LVU23
 151 0016 094B     		ldr	r3, .L10
 152              	.LVL13:
ARM GAS  /var/folders/lr/lj34qkqj2c73hcmf5705x8480000gn/T//ccIJufSS.s 			page 6


  81:Core/Src/bmp280.c **** 
 153              		.loc 1 81 12 view .LVU24
 154 0018 1870     		strb	r0, [r3]
  83:Core/Src/bmp280.c **** 	memcpy(wrbuf + 1, data, len);
 155              		.loc 1 83 2 is_stmt 1 view .LVU25
  83:Core/Src/bmp280.c **** 	memcpy(wrbuf + 1, data, len);
 156              		.loc 1 83 11 is_stmt 0 view .LVU26
 157 001a 094C     		ldr	r4, .L10+4
 158 001c 2046     		mov	r0, r4
 159              	.LVL14:
  83:Core/Src/bmp280.c **** 	memcpy(wrbuf + 1, data, len);
 160              		.loc 1 83 11 view .LVU27
 161 001e 00F801CB 		strb	ip, [r0], #1
  84:Core/Src/bmp280.c **** 
 162              		.loc 1 84 2 is_stmt 1 view .LVU28
 163 0022 FFF7FEFF 		bl	memcpy
 164              	.LVL15:
  86:Core/Src/bmp280.c **** 
 165              		.loc 1 86 2 view .LVU29
  86:Core/Src/bmp280.c **** 
 166              		.loc 1 86 8 is_stmt 0 view .LVU30
 167 0026 074B     		ldr	r3, .L10+8
 168 0028 1D60     		str	r5, [r3]
  88:Core/Src/bmp280.c **** }
 169              		.loc 1 88 2 is_stmt 1 view .LVU31
  88:Core/Src/bmp280.c **** }
 170              		.loc 1 88 9 is_stmt 0 view .LVU32
 171 002a AAB2     		uxth	r2, r5
 172 002c 2146     		mov	r1, r4
 173 002e 0648     		ldr	r0, .L10+12
 174 0030 FFF7FEFF 		bl	HAL_SPI_Transmit_DMA
 175              	.LVL16:
 176              	.L6:
  89:Core/Src/bmp280.c **** static uint8_t bmp280_read_async(bpm280_op_t op, uint8_t addr, uint8_t *data, size_t len)
 177              		.loc 1 89 1 view .LVU33
 178 0034 38BD     		pop	{r3, r4, r5, pc}
 179              	.LVL17:
 180              	.L8:
  76:Core/Src/bmp280.c **** 	}
 181              		.loc 1 76 10 view .LVU34
 182 0036 0120     		movs	r0, #1
 183              	.LVL18:
  76:Core/Src/bmp280.c **** 	}
 184              		.loc 1 76 10 view .LVU35
 185 0038 FCE7     		b	.L6
 186              	.L11:
 187 003a 00BF     		.align	2
 188              	.L10:
 189 003c 00000000 		.word	currentOp
 190 0040 00000000 		.word	wrbuf
 191 0044 00000000 		.word	wrLen
 192 0048 00000000 		.word	hspi1
 193              		.cfi_endproc
 194              	.LFE130:
 196              		.section	.text.bmp280_read_async,"ax",%progbits
 197              		.align	1
 198              		.syntax unified
ARM GAS  /var/folders/lr/lj34qkqj2c73hcmf5705x8480000gn/T//ccIJufSS.s 			page 7


 199              		.thumb
 200              		.thumb_func
 202              	bmp280_read_async:
 203              	.LVL19:
 204              	.LFB131:
  91:Core/Src/bmp280.c **** 	if (len + 1 > BUF_SIZE)
 205              		.loc 1 91 1 is_stmt 1 view -0
 206              		.cfi_startproc
 207              		@ args = 0, pretend = 0, frame = 0
 208              		@ frame_needed = 0, uses_anonymous_args = 0
  91:Core/Src/bmp280.c **** 	if (len + 1 > BUF_SIZE)
 209              		.loc 1 91 1 is_stmt 0 view .LVU37
 210 0000 70B5     		push	{r4, r5, r6, lr}
 211              	.LCFI4:
 212              		.cfi_def_cfa_offset 16
 213              		.cfi_offset 4, -16
 214              		.cfi_offset 5, -12
 215              		.cfi_offset 6, -8
 216              		.cfi_offset 14, -4
 217 0002 0E46     		mov	r6, r1
 218 0004 1C46     		mov	r4, r3
  92:Core/Src/bmp280.c **** 	{
 219              		.loc 1 92 2 is_stmt 1 view .LVU38
  92:Core/Src/bmp280.c **** 	{
 220              		.loc 1 92 10 is_stmt 0 view .LVU39
 221 0006 0133     		adds	r3, r3, #1
 222              	.LVL20:
  92:Core/Src/bmp280.c **** 	{
 223              		.loc 1 92 5 view .LVU40
 224 0008 202B     		cmp	r3, #32
 225 000a 15D8     		bhi	.L15
 226              	.LVL21:
 227              	.L14:
  97:Core/Src/bmp280.c **** 		;
 228              		.loc 1 97 19 is_stmt 1 discriminator 1 view .LVU41
 229 000c 0B4A     		ldr	r2, .L17
 230 000e 1278     		ldrb	r2, [r2]	@ zero_extendqisi2
 231 0010 002A     		cmp	r2, #0
 232 0012 FBD1     		bne	.L14
  99:Core/Src/bmp280.c **** 
 233              		.loc 1 99 2 view .LVU42
  99:Core/Src/bmp280.c **** 
 234              		.loc 1 99 12 is_stmt 0 view .LVU43
 235 0014 094B     		ldr	r3, .L17
 236 0016 1870     		strb	r0, [r3]
 101:Core/Src/bmp280.c **** 
 237              		.loc 1 101 2 is_stmt 1 view .LVU44
 238 0018 094D     		ldr	r5, .L17+4
 239 001a 2022     		movs	r2, #32
 240 001c 0021     		movs	r1, #0
 241              	.LVL22:
 101:Core/Src/bmp280.c **** 
 242              		.loc 1 101 2 is_stmt 0 view .LVU45
 243 001e 2846     		mov	r0, r5
 244              	.LVL23:
 101:Core/Src/bmp280.c **** 
 245              		.loc 1 101 2 view .LVU46
ARM GAS  /var/folders/lr/lj34qkqj2c73hcmf5705x8480000gn/T//ccIJufSS.s 			page 8


 246 0020 FFF7FEFF 		bl	memset
 247              	.LVL24:
 103:Core/Src/bmp280.c **** 
 248              		.loc 1 103 2 is_stmt 1 view .LVU47
 103:Core/Src/bmp280.c **** 
 249              		.loc 1 103 11 is_stmt 0 view .LVU48
 250 0024 2E70     		strb	r6, [r5]
 105:Core/Src/bmp280.c **** 	return HAL_SPI_TransmitReceive_DMA(&hspi1, wrbuf, rdbuf, rdLen);
 251              		.loc 1 105 2 is_stmt 1 view .LVU49
 105:Core/Src/bmp280.c **** 	return HAL_SPI_TransmitReceive_DMA(&hspi1, wrbuf, rdbuf, rdLen);
 252              		.loc 1 105 8 is_stmt 0 view .LVU50
 253 0026 074B     		ldr	r3, .L17+8
 254 0028 1C60     		str	r4, [r3]
 106:Core/Src/bmp280.c **** }
 255              		.loc 1 106 2 is_stmt 1 view .LVU51
 106:Core/Src/bmp280.c **** }
 256              		.loc 1 106 9 is_stmt 0 view .LVU52
 257 002a A3B2     		uxth	r3, r4
 258 002c 064A     		ldr	r2, .L17+12
 259 002e 2946     		mov	r1, r5
 260 0030 0648     		ldr	r0, .L17+16
 261 0032 FFF7FEFF 		bl	HAL_SPI_TransmitReceive_DMA
 262              	.LVL25:
 263              	.L13:
 107:Core/Src/bmp280.c **** static uint8_t bmp280_write_sync(uint8_t addr, uint8_t *data, size_t len,
 264              		.loc 1 107 1 view .LVU53
 265 0036 70BD     		pop	{r4, r5, r6, pc}
 266              	.LVL26:
 267              	.L15:
  94:Core/Src/bmp280.c **** 	}
 268              		.loc 1 94 10 view .LVU54
 269 0038 0120     		movs	r0, #1
 270              	.LVL27:
  94:Core/Src/bmp280.c **** 	}
 271              		.loc 1 94 10 view .LVU55
 272 003a FCE7     		b	.L13
 273              	.L18:
 274              		.align	2
 275              	.L17:
 276 003c 00000000 		.word	currentOp
 277 0040 00000000 		.word	wrbuf
 278 0044 00000000 		.word	rdLen
 279 0048 00000000 		.word	rdbuf
 280 004c 00000000 		.word	hspi1
 281              		.cfi_endproc
 282              	.LFE131:
 284              		.section	.text.bmp280_getid,"ax",%progbits
 285              		.align	1
 286              		.global	bmp280_getid
 287              		.syntax unified
 288              		.thumb
 289              		.thumb_func
 291              	bmp280_getid:
 292              	.LVL28:
 293              	.LFB136:
 128:Core/Src/bmp280.c **** static void bmp280_get_trim_values(void)
 129:Core/Src/bmp280.c **** {
ARM GAS  /var/folders/lr/lj34qkqj2c73hcmf5705x8480000gn/T//ccIJufSS.s 			page 9


 130:Core/Src/bmp280.c **** 
 131:Core/Src/bmp280.c **** }
 132:Core/Src/bmp280.c **** uint8_t bmp280_init(bmp_cplt_callback_t rxCb, bmp_cplt_callback_t txCb)
 133:Core/Src/bmp280.c **** {
 134:Core/Src/bmp280.c **** 
 135:Core/Src/bmp280.c **** 
 136:Core/Src/bmp280.c **** 	memset((void*)&trim_values, 0, sizeof(trim_values));
 137:Core/Src/bmp280.c **** 
 138:Core/Src/bmp280.c **** 	userRxCb = rxCb;
 139:Core/Src/bmp280.c **** 	userTxCb = txCb;
 140:Core/Src/bmp280.c **** 
 141:Core/Src/bmp280.c **** 	/*
 142:Core/Src/bmp280.c **** 	 * Verify we can communicate to the device
 143:Core/Src/bmp280.c **** 	 */
 144:Core/Src/bmp280.c **** 	uint8_t id = 0;
 145:Core/Src/bmp280.c **** 	if (bmp280_getid(&id) != HAL_OK)
 146:Core/Src/bmp280.c **** 	{
 147:Core/Src/bmp280.c **** 		return HAL_ERROR;
 148:Core/Src/bmp280.c **** 	}
 149:Core/Src/bmp280.c **** 	else if (id != BMP280_DEV_ID)
 150:Core/Src/bmp280.c **** 	{
 151:Core/Src/bmp280.c **** 		return HAL_ERROR;
 152:Core/Src/bmp280.c **** 	}
 153:Core/Src/bmp280.c **** 
 154:Core/Src/bmp280.c **** 	return HAL_OK;
 155:Core/Src/bmp280.c **** }
 156:Core/Src/bmp280.c **** 
 157:Core/Src/bmp280.c **** uint8_t bmp280_getid(uint8_t *id)
 158:Core/Src/bmp280.c **** {
 294              		.loc 1 158 1 is_stmt 1 view -0
 295              		.cfi_startproc
 296              		@ args = 0, pretend = 0, frame = 0
 297              		@ frame_needed = 0, uses_anonymous_args = 0
 298              		.loc 1 158 1 is_stmt 0 view .LVU57
 299 0000 08B5     		push	{r3, lr}
 300              	.LCFI5:
 301              		.cfi_def_cfa_offset 8
 302              		.cfi_offset 3, -8
 303              		.cfi_offset 14, -4
 304 0002 0146     		mov	r1, r0
 159:Core/Src/bmp280.c **** 
 160:Core/Src/bmp280.c **** 	uint8_t ret = bmp280_read_sync(BMP280_ID_ADDR, id, 1, HAL_MAX_DELAY);
 305              		.loc 1 160 2 is_stmt 1 view .LVU58
 306              		.loc 1 160 16 is_stmt 0 view .LVU59
 307 0004 4FF0FF33 		mov	r3, #-1
 308 0008 0122     		movs	r2, #1
 309 000a D020     		movs	r0, #208
 310              	.LVL29:
 311              		.loc 1 160 16 view .LVU60
 312 000c FFF7FEFF 		bl	bmp280_read_sync
 313              	.LVL30:
 161:Core/Src/bmp280.c **** 
 162:Core/Src/bmp280.c **** 	//	*id &= ~(1 << 7);
 163:Core/Src/bmp280.c **** 	//	*id <<=1;
 164:Core/Src/bmp280.c **** 	return ret;
 314              		.loc 1 164 2 is_stmt 1 view .LVU61
 165:Core/Src/bmp280.c **** }
ARM GAS  /var/folders/lr/lj34qkqj2c73hcmf5705x8480000gn/T//ccIJufSS.s 			page 10


 315              		.loc 1 165 1 is_stmt 0 view .LVU62
 316 0010 08BD     		pop	{r3, pc}
 317              		.cfi_endproc
 318              	.LFE136:
 320              		.section	.text.bmp280_init,"ax",%progbits
 321              		.align	1
 322              		.global	bmp280_init
 323              		.syntax unified
 324              		.thumb
 325              		.thumb_func
 327              	bmp280_init:
 328              	.LVL31:
 329              	.LFB135:
 133:Core/Src/bmp280.c **** 
 330              		.loc 1 133 1 is_stmt 1 view -0
 331              		.cfi_startproc
 332              		@ args = 0, pretend = 0, frame = 8
 333              		@ frame_needed = 0, uses_anonymous_args = 0
 133:Core/Src/bmp280.c **** 
 334              		.loc 1 133 1 is_stmt 0 view .LVU64
 335 0000 30B5     		push	{r4, r5, lr}
 336              	.LCFI6:
 337              		.cfi_def_cfa_offset 12
 338              		.cfi_offset 4, -12
 339              		.cfi_offset 5, -8
 340              		.cfi_offset 14, -4
 341 0002 83B0     		sub	sp, sp, #12
 342              	.LCFI7:
 343              		.cfi_def_cfa_offset 24
 344 0004 0546     		mov	r5, r0
 345 0006 0C46     		mov	r4, r1
 136:Core/Src/bmp280.c **** 
 346              		.loc 1 136 2 is_stmt 1 view .LVU65
 347 0008 2022     		movs	r2, #32
 348 000a 0021     		movs	r1, #0
 349              	.LVL32:
 136:Core/Src/bmp280.c **** 
 350              		.loc 1 136 2 is_stmt 0 view .LVU66
 351 000c 0B48     		ldr	r0, .L26
 352              	.LVL33:
 136:Core/Src/bmp280.c **** 
 353              		.loc 1 136 2 view .LVU67
 354 000e FFF7FEFF 		bl	memset
 355              	.LVL34:
 138:Core/Src/bmp280.c **** 	userTxCb = txCb;
 356              		.loc 1 138 2 is_stmt 1 view .LVU68
 138:Core/Src/bmp280.c **** 	userTxCb = txCb;
 357              		.loc 1 138 11 is_stmt 0 view .LVU69
 358 0012 0B4B     		ldr	r3, .L26+4
 359 0014 1D60     		str	r5, [r3]
 139:Core/Src/bmp280.c **** 
 360              		.loc 1 139 2 is_stmt 1 view .LVU70
 139:Core/Src/bmp280.c **** 
 361              		.loc 1 139 11 is_stmt 0 view .LVU71
 362 0016 0B4B     		ldr	r3, .L26+8
 363 0018 1C60     		str	r4, [r3]
 144:Core/Src/bmp280.c **** 	if (bmp280_getid(&id) != HAL_OK)
ARM GAS  /var/folders/lr/lj34qkqj2c73hcmf5705x8480000gn/T//ccIJufSS.s 			page 11


 364              		.loc 1 144 2 is_stmt 1 view .LVU72
 144:Core/Src/bmp280.c **** 	if (bmp280_getid(&id) != HAL_OK)
 365              		.loc 1 144 10 is_stmt 0 view .LVU73
 366 001a 0023     		movs	r3, #0
 367 001c 8DF80730 		strb	r3, [sp, #7]
 145:Core/Src/bmp280.c **** 	{
 368              		.loc 1 145 2 is_stmt 1 view .LVU74
 145:Core/Src/bmp280.c **** 	{
 369              		.loc 1 145 6 is_stmt 0 view .LVU75
 370 0020 0DF10700 		add	r0, sp, #7
 371 0024 FFF7FEFF 		bl	bmp280_getid
 372              	.LVL35:
 145:Core/Src/bmp280.c **** 	{
 373              		.loc 1 145 5 view .LVU76
 374 0028 28B9     		cbnz	r0, .L23
 149:Core/Src/bmp280.c **** 	{
 375              		.loc 1 149 7 is_stmt 1 view .LVU77
 149:Core/Src/bmp280.c **** 	{
 376              		.loc 1 149 14 is_stmt 0 view .LVU78
 377 002a 9DF80730 		ldrb	r3, [sp, #7]	@ zero_extendqisi2
 149:Core/Src/bmp280.c **** 	{
 378              		.loc 1 149 10 view .LVU79
 379 002e 582B     		cmp	r3, #88
 380 0030 02D0     		beq	.L22
 151:Core/Src/bmp280.c **** 	}
 381              		.loc 1 151 10 view .LVU80
 382 0032 0120     		movs	r0, #1
 383 0034 00E0     		b	.L22
 384              	.L23:
 147:Core/Src/bmp280.c **** 	}
 385              		.loc 1 147 10 view .LVU81
 386 0036 0120     		movs	r0, #1
 387              	.L22:
 155:Core/Src/bmp280.c **** 
 388              		.loc 1 155 1 view .LVU82
 389 0038 03B0     		add	sp, sp, #12
 390              	.LCFI8:
 391              		.cfi_def_cfa_offset 12
 392              		@ sp needed
 393 003a 30BD     		pop	{r4, r5, pc}
 394              	.LVL36:
 395              	.L27:
 155:Core/Src/bmp280.c **** 
 396              		.loc 1 155 1 view .LVU83
 397              		.align	2
 398              	.L26:
 399 003c 00000000 		.word	trim_values
 400 0040 00000000 		.word	userRxCb
 401 0044 00000000 		.word	userTxCb
 402              		.cfi_endproc
 403              	.LFE135:
 405              		.section	.text.bmp280_reset,"ax",%progbits
 406              		.align	1
 407              		.global	bmp280_reset
 408              		.syntax unified
 409              		.thumb
 410              		.thumb_func
ARM GAS  /var/folders/lr/lj34qkqj2c73hcmf5705x8480000gn/T//ccIJufSS.s 			page 12


 412              	bmp280_reset:
 413              	.LFB137:
 166:Core/Src/bmp280.c **** 
 167:Core/Src/bmp280.c **** void bmp280_reset(void)
 168:Core/Src/bmp280.c **** {
 414              		.loc 1 168 1 is_stmt 1 view -0
 415              		.cfi_startproc
 416              		@ args = 0, pretend = 0, frame = 0
 417              		@ frame_needed = 0, uses_anonymous_args = 0
 418 0000 08B5     		push	{r3, lr}
 419              	.LCFI9:
 420              		.cfi_def_cfa_offset 8
 421              		.cfi_offset 3, -8
 422              		.cfi_offset 14, -4
 169:Core/Src/bmp280.c **** 	static const uint8_t RESET_CMD = 0xB6;
 423              		.loc 1 169 2 view .LVU85
 170:Core/Src/bmp280.c **** 
 171:Core/Src/bmp280.c **** 	bmp280_write_async(BMP280_RESET, BMP280_RESET_ADDR, (uint8_t*)&RESET_CMD, 1);
 424              		.loc 1 171 2 view .LVU86
 425 0002 0123     		movs	r3, #1
 426 0004 024A     		ldr	r2, .L30
 427 0006 E021     		movs	r1, #224
 428 0008 0220     		movs	r0, #2
 429 000a FFF7FEFF 		bl	bmp280_write_async
 430              	.LVL37:
 172:Core/Src/bmp280.c **** }
 431              		.loc 1 172 1 is_stmt 0 view .LVU87
 432 000e 08BD     		pop	{r3, pc}
 433              	.L31:
 434              		.align	2
 435              	.L30:
 436 0010 00000000 		.word	RESET_CMD.2
 437              		.cfi_endproc
 438              	.LFE137:
 440              		.section	.text.bmp280_set_ctrl_meas,"ax",%progbits
 441              		.align	1
 442              		.global	bmp280_set_ctrl_meas
 443              		.syntax unified
 444              		.thumb
 445              		.thumb_func
 447              	bmp280_set_ctrl_meas:
 448              	.LVL38:
 449              	.LFB138:
 173:Core/Src/bmp280.c **** 
 174:Core/Src/bmp280.c **** void bmp280_set_ctrl_meas(bmp280_ctrl_cfg_t *ctrlCfg)
 175:Core/Src/bmp280.c **** {
 450              		.loc 1 175 1 is_stmt 1 view -0
 451              		.cfi_startproc
 452              		@ args = 0, pretend = 0, frame = 0
 453              		@ frame_needed = 0, uses_anonymous_args = 0
 454              		.loc 1 175 1 is_stmt 0 view .LVU89
 455 0000 08B5     		push	{r3, lr}
 456              	.LCFI10:
 457              		.cfi_def_cfa_offset 8
 458              		.cfi_offset 3, -8
 459              		.cfi_offset 14, -4
 176:Core/Src/bmp280.c **** 	static uint8_t ctrlVal = 0x00;
ARM GAS  /var/folders/lr/lj34qkqj2c73hcmf5705x8480000gn/T//ccIJufSS.s 			page 13


 460              		.loc 1 176 2 is_stmt 1 view .LVU90
 177:Core/Src/bmp280.c **** 	ctrlVal = (ctrlCfg->tempOversampling << 5) | (ctrlCfg->pressOversapling << 2) | ctrlCfg->mode;
 461              		.loc 1 177 2 view .LVU91
 462              		.loc 1 177 20 is_stmt 0 view .LVU92
 463 0002 4278     		ldrb	r2, [r0, #1]	@ zero_extendqisi2
 464              		.loc 1 177 55 view .LVU93
 465 0004 0378     		ldrb	r3, [r0]	@ zero_extendqisi2
 466              		.loc 1 177 74 view .LVU94
 467 0006 9B00     		lsls	r3, r3, #2
 468              		.loc 1 177 45 view .LVU95
 469 0008 43EA4213 		orr	r3, r3, r2, lsl #5
 470 000c 5BB2     		sxtb	r3, r3
 471              		.loc 1 177 89 view .LVU96
 472 000e 8278     		ldrb	r2, [r0, #2]	@ zero_extendqisi2
 473              		.loc 1 177 80 view .LVU97
 474 0010 1343     		orrs	r3, r3, r2
 475              		.loc 1 177 10 view .LVU98
 476 0012 044A     		ldr	r2, .L34
 477 0014 1370     		strb	r3, [r2]
 178:Core/Src/bmp280.c **** 	bmp280_write_async(BMP280_SET_CTRL, BMP280_CTRL_MEAS_ADDR, &ctrlVal, 1);
 478              		.loc 1 178 2 is_stmt 1 view .LVU99
 479 0016 0123     		movs	r3, #1
 480 0018 F421     		movs	r1, #244
 481 001a 0320     		movs	r0, #3
 482              	.LVL39:
 483              		.loc 1 178 2 is_stmt 0 view .LVU100
 484 001c FFF7FEFF 		bl	bmp280_write_async
 485              	.LVL40:
 179:Core/Src/bmp280.c **** }
 486              		.loc 1 179 1 view .LVU101
 487 0020 08BD     		pop	{r3, pc}
 488              	.L35:
 489 0022 00BF     		.align	2
 490              	.L34:
 491 0024 00000000 		.word	ctrlVal.1
 492              		.cfi_endproc
 493              	.LFE138:
 495              		.section	.text.bmp280_set_config,"ax",%progbits
 496              		.align	1
 497              		.global	bmp280_set_config
 498              		.syntax unified
 499              		.thumb
 500              		.thumb_func
 502              	bmp280_set_config:
 503              	.LVL41:
 504              	.LFB139:
 180:Core/Src/bmp280.c **** uint8_t bmp280_set_config(bmp280_config_t *config)
 181:Core/Src/bmp280.c **** {
 505              		.loc 1 181 1 is_stmt 1 view -0
 506              		.cfi_startproc
 507              		@ args = 0, pretend = 0, frame = 0
 508              		@ frame_needed = 0, uses_anonymous_args = 0
 509              		.loc 1 181 1 is_stmt 0 view .LVU103
 510 0000 08B5     		push	{r3, lr}
 511              	.LCFI11:
 512              		.cfi_def_cfa_offset 8
 513              		.cfi_offset 3, -8
ARM GAS  /var/folders/lr/lj34qkqj2c73hcmf5705x8480000gn/T//ccIJufSS.s 			page 14


 514              		.cfi_offset 14, -4
 182:Core/Src/bmp280.c **** 
 183:Core/Src/bmp280.c **** 	static uint8_t configVal = 0;
 515              		.loc 1 183 2 is_stmt 1 view .LVU104
 184:Core/Src/bmp280.c **** 
 185:Core/Src/bmp280.c **** 	configVal = (config->standbyTime << 5) | (config->iirFilterTc << 2) | config->spi3wEn;
 516              		.loc 1 185 2 view .LVU105
 517              		.loc 1 185 21 is_stmt 0 view .LVU106
 518 0002 0278     		ldrb	r2, [r0]	@ zero_extendqisi2
 519              		.loc 1 185 50 view .LVU107
 520 0004 4378     		ldrb	r3, [r0, #1]	@ zero_extendqisi2
 521              		.loc 1 185 64 view .LVU108
 522 0006 9B00     		lsls	r3, r3, #2
 523              		.loc 1 185 41 view .LVU109
 524 0008 43EA4213 		orr	r3, r3, r2, lsl #5
 525 000c 5BB2     		sxtb	r3, r3
 526              		.loc 1 185 78 view .LVU110
 527 000e 8278     		ldrb	r2, [r0, #2]	@ zero_extendqisi2
 528              		.loc 1 185 70 view .LVU111
 529 0010 1343     		orrs	r3, r3, r2
 530              		.loc 1 185 12 view .LVU112
 531 0012 044A     		ldr	r2, .L38
 532 0014 1370     		strb	r3, [r2]
 186:Core/Src/bmp280.c **** 
 187:Core/Src/bmp280.c **** 	return bmp280_write_async(BMP280_SET_CONFIG, BMP280_CONFIG_ADDR, &configVal, 1);
 533              		.loc 1 187 2 is_stmt 1 view .LVU113
 534              		.loc 1 187 9 is_stmt 0 view .LVU114
 535 0016 0123     		movs	r3, #1
 536 0018 F521     		movs	r1, #245
 537 001a 0420     		movs	r0, #4
 538              	.LVL42:
 539              		.loc 1 187 9 view .LVU115
 540 001c FFF7FEFF 		bl	bmp280_write_async
 541              	.LVL43:
 188:Core/Src/bmp280.c **** }
 542              		.loc 1 188 1 view .LVU116
 543 0020 08BD     		pop	{r3, pc}
 544              	.L39:
 545 0022 00BF     		.align	2
 546              	.L38:
 547 0024 00000000 		.word	configVal.0
 548              		.cfi_endproc
 549              	.LFE139:
 551              		.section	.text.bmp280_start_press_read,"ax",%progbits
 552              		.align	1
 553              		.global	bmp280_start_press_read
 554              		.syntax unified
 555              		.thumb
 556              		.thumb_func
 558              	bmp280_start_press_read:
 559              	.LFB140:
 189:Core/Src/bmp280.c **** 
 190:Core/Src/bmp280.c **** uint8_t bmp280_start_press_read(void)
 191:Core/Src/bmp280.c **** {
 560              		.loc 1 191 1 is_stmt 1 view -0
 561              		.cfi_startproc
 562              		@ args = 0, pretend = 0, frame = 0
ARM GAS  /var/folders/lr/lj34qkqj2c73hcmf5705x8480000gn/T//ccIJufSS.s 			page 15


 563              		@ frame_needed = 0, uses_anonymous_args = 0
 564 0000 08B5     		push	{r3, lr}
 565              	.LCFI12:
 566              		.cfi_def_cfa_offset 8
 567              		.cfi_offset 3, -8
 568              		.cfi_offset 14, -4
 192:Core/Src/bmp280.c **** 	static const uint32_t PRESS_SIZE = 3;
 569              		.loc 1 192 2 view .LVU118
 193:Core/Src/bmp280.c **** 	return bmp280_read_async(BMP280_GET_PRESS, BMP280_PRESS_ADDR_MSB, rdbuf, PRESS_SIZE);
 570              		.loc 1 193 2 view .LVU119
 571              		.loc 1 193 9 is_stmt 0 view .LVU120
 572 0002 0323     		movs	r3, #3
 573 0004 024A     		ldr	r2, .L42
 574 0006 F721     		movs	r1, #247
 575 0008 0620     		movs	r0, #6
 576 000a FFF7FEFF 		bl	bmp280_read_async
 577              	.LVL44:
 194:Core/Src/bmp280.c **** }
 578              		.loc 1 194 1 view .LVU121
 579 000e 08BD     		pop	{r3, pc}
 580              	.L43:
 581              		.align	2
 582              	.L42:
 583 0010 00000000 		.word	rdbuf
 584              		.cfi_endproc
 585              	.LFE140:
 587              		.section	.text.bmp280_start_temp_read,"ax",%progbits
 588              		.align	1
 589              		.global	bmp280_start_temp_read
 590              		.syntax unified
 591              		.thumb
 592              		.thumb_func
 594              	bmp280_start_temp_read:
 595              	.LFB141:
 195:Core/Src/bmp280.c **** uint8_t bmp280_start_temp_read(void)
 196:Core/Src/bmp280.c **** {
 596              		.loc 1 196 1 is_stmt 1 view -0
 597              		.cfi_startproc
 598              		@ args = 0, pretend = 0, frame = 0
 599              		@ frame_needed = 0, uses_anonymous_args = 0
 600 0000 08B5     		push	{r3, lr}
 601              	.LCFI13:
 602              		.cfi_def_cfa_offset 8
 603              		.cfi_offset 3, -8
 604              		.cfi_offset 14, -4
 197:Core/Src/bmp280.c **** 	static const uint32_t TEMP_SIZE = 3;
 605              		.loc 1 197 2 view .LVU123
 198:Core/Src/bmp280.c **** 
 199:Core/Src/bmp280.c **** 	return bmp280_read_async(BMP280_GET_TEMP, BMP280_TEMP_ADDR_MSB, rdbuf, TEMP_SIZE);
 606              		.loc 1 199 2 view .LVU124
 607              		.loc 1 199 9 is_stmt 0 view .LVU125
 608 0002 0323     		movs	r3, #3
 609 0004 024A     		ldr	r2, .L46
 610 0006 FA21     		movs	r1, #250
 611 0008 0520     		movs	r0, #5
 612 000a FFF7FEFF 		bl	bmp280_read_async
 613              	.LVL45:
ARM GAS  /var/folders/lr/lj34qkqj2c73hcmf5705x8480000gn/T//ccIJufSS.s 			page 16


 200:Core/Src/bmp280.c **** }
 614              		.loc 1 200 1 view .LVU126
 615 000e 08BD     		pop	{r3, pc}
 616              	.L47:
 617              		.align	2
 618              	.L46:
 619 0010 00000000 		.word	rdbuf
 620              		.cfi_endproc
 621              	.LFE141:
 623              		.section	.text.bmp280_read_pressure_and_temperature,"ax",%progbits
 624              		.align	1
 625              		.global	bmp280_read_pressure_and_temperature
 626              		.syntax unified
 627              		.thumb
 628              		.thumb_func
 630              	bmp280_read_pressure_and_temperature:
 631              	.LFB142:
 201:Core/Src/bmp280.c **** uint8_t bmp280_read_pressure_and_temperature(void)
 202:Core/Src/bmp280.c **** {
 632              		.loc 1 202 1 is_stmt 1 view -0
 633              		.cfi_startproc
 634              		@ args = 0, pretend = 0, frame = 0
 635              		@ frame_needed = 0, uses_anonymous_args = 0
 636 0000 08B5     		push	{r3, lr}
 637              	.LCFI14:
 638              		.cfi_def_cfa_offset 8
 639              		.cfi_offset 3, -8
 640              		.cfi_offset 14, -4
 203:Core/Src/bmp280.c **** 
 204:Core/Src/bmp280.c **** 	static const uint32_t PRESS_TEMP_SIZE = 6;
 641              		.loc 1 204 2 view .LVU128
 205:Core/Src/bmp280.c **** 	return bmp280_read_async(BMP280_GET_PRESS_TEMP, BMP280_PRESS_ADDR_MSB, rdbuf, PRESS_TEMP_SIZE);
 642              		.loc 1 205 2 view .LVU129
 643              		.loc 1 205 9 is_stmt 0 view .LVU130
 644 0002 0623     		movs	r3, #6
 645 0004 024A     		ldr	r2, .L50
 646 0006 F721     		movs	r1, #247
 647 0008 0720     		movs	r0, #7
 648 000a FFF7FEFF 		bl	bmp280_read_async
 649              	.LVL46:
 206:Core/Src/bmp280.c **** }
 650              		.loc 1 206 1 view .LVU131
 651 000e 08BD     		pop	{r3, pc}
 652              	.L51:
 653              		.align	2
 654              	.L50:
 655 0010 00000000 		.word	rdbuf
 656              		.cfi_endproc
 657              	.LFE142:
 659              		.section	.text.bmp280_get_pressure,"ax",%progbits
 660              		.align	1
 661              		.global	bmp280_get_pressure
 662              		.syntax unified
 663              		.thumb
 664              		.thumb_func
 666              	bmp280_get_pressure:
 667              	.LFB143:
ARM GAS  /var/folders/lr/lj34qkqj2c73hcmf5705x8480000gn/T//ccIJufSS.s 			page 17


 207:Core/Src/bmp280.c **** uint32_t bmp280_get_pressure(void)
 208:Core/Src/bmp280.c **** {
 668              		.loc 1 208 1 is_stmt 1 view -0
 669              		.cfi_startproc
 670              		@ args = 0, pretend = 0, frame = 0
 671              		@ frame_needed = 0, uses_anonymous_args = 0
 672              		@ link register save eliminated.
 209:Core/Src/bmp280.c **** 
 210:Core/Src/bmp280.c **** 	return currentPress;
 673              		.loc 1 210 2 view .LVU133
 211:Core/Src/bmp280.c **** }
 674              		.loc 1 211 1 is_stmt 0 view .LVU134
 675 0000 014B     		ldr	r3, .L53
 676 0002 1868     		ldr	r0, [r3]
 677 0004 7047     		bx	lr
 678              	.L54:
 679 0006 00BF     		.align	2
 680              	.L53:
 681 0008 00000000 		.word	currentPress
 682              		.cfi_endproc
 683              	.LFE143:
 685              		.section	.text.bmp280_get_temp,"ax",%progbits
 686              		.align	1
 687              		.global	bmp280_get_temp
 688              		.syntax unified
 689              		.thumb
 690              		.thumb_func
 692              	bmp280_get_temp:
 693              	.LVL47:
 694              	.LFB144:
 212:Core/Src/bmp280.c **** uint8_t bmp280_get_temp(uint32_t *temperature)
 213:Core/Src/bmp280.c **** {
 695              		.loc 1 213 1 is_stmt 1 view -0
 696              		.cfi_startproc
 697              		@ args = 0, pretend = 0, frame = 8
 698              		@ frame_needed = 0, uses_anonymous_args = 0
 699              		.loc 1 213 1 is_stmt 0 view .LVU136
 700 0000 10B5     		push	{r4, lr}
 701              	.LCFI15:
 702              		.cfi_def_cfa_offset 8
 703              		.cfi_offset 4, -8
 704              		.cfi_offset 14, -4
 705 0002 82B0     		sub	sp, sp, #8
 706              	.LCFI16:
 707              		.cfi_def_cfa_offset 16
 708 0004 0446     		mov	r4, r0
 214:Core/Src/bmp280.c **** 
 215:Core/Src/bmp280.c **** 	static const uint32_t TEMP_SIZE = 3;
 709              		.loc 1 215 2 is_stmt 1 view .LVU137
 216:Core/Src/bmp280.c **** 	uint8_t temp[3] = {0};
 710              		.loc 1 216 2 view .LVU138
 711              		.loc 1 216 10 is_stmt 0 view .LVU139
 712 0006 0D4B     		ldr	r3, .L57
 713 0008 1B88     		ldrh	r3, [r3]
 714 000a ADF80430 		strh	r3, [sp, #4]	@ movhi
 715 000e 0023     		movs	r3, #0
 716 0010 8DF80630 		strb	r3, [sp, #6]
ARM GAS  /var/folders/lr/lj34qkqj2c73hcmf5705x8480000gn/T//ccIJufSS.s 			page 18


 217:Core/Src/bmp280.c **** 
 218:Core/Src/bmp280.c **** 	static const uint8_t addr = BMP280_TEMP_ADDR_MSB;
 717              		.loc 1 218 2 is_stmt 1 view .LVU140
 219:Core/Src/bmp280.c **** 	uint8_t ret = bmp280_read_sync(addr, temp, TEMP_SIZE, HAL_MAX_DELAY);
 718              		.loc 1 219 2 view .LVU141
 719              		.loc 1 219 16 is_stmt 0 view .LVU142
 720 0014 4FF0FF33 		mov	r3, #-1
 721 0018 0322     		movs	r2, #3
 722 001a 01A9     		add	r1, sp, #4
 723 001c FA20     		movs	r0, #250
 724              	.LVL48:
 725              		.loc 1 219 16 view .LVU143
 726 001e FFF7FEFF 		bl	bmp280_read_sync
 727              	.LVL49:
 220:Core/Src/bmp280.c **** 
 221:Core/Src/bmp280.c **** 	
 222:Core/Src/bmp280.c **** 	*temperature =  temp[2] << 16 | temp[1] << 8 | temp[0];
 728              		.loc 1 222 2 is_stmt 1 view .LVU144
 729              		.loc 1 222 22 is_stmt 0 view .LVU145
 730 0022 9DF80620 		ldrb	r2, [sp, #6]	@ zero_extendqisi2
 731              		.loc 1 222 38 view .LVU146
 732 0026 9DF80530 		ldrb	r3, [sp, #5]	@ zero_extendqisi2
 733              		.loc 1 222 42 view .LVU147
 734 002a 1B02     		lsls	r3, r3, #8
 735              		.loc 1 222 32 view .LVU148
 736 002c 43EA0243 		orr	r3, r3, r2, lsl #16
 737              		.loc 1 222 53 view .LVU149
 738 0030 9DF80420 		ldrb	r2, [sp, #4]	@ zero_extendqisi2
 739              		.loc 1 222 47 view .LVU150
 740 0034 1343     		orrs	r3, r3, r2
 741              		.loc 1 222 15 view .LVU151
 742 0036 2360     		str	r3, [r4]
 223:Core/Src/bmp280.c **** 
 224:Core/Src/bmp280.c **** 	return ret;
 743              		.loc 1 224 2 is_stmt 1 view .LVU152
 225:Core/Src/bmp280.c **** }
 744              		.loc 1 225 1 is_stmt 0 view .LVU153
 745 0038 02B0     		add	sp, sp, #8
 746              	.LCFI17:
 747              		.cfi_def_cfa_offset 8
 748              		@ sp needed
 749 003a 10BD     		pop	{r4, pc}
 750              	.LVL50:
 751              	.L58:
 752              		.loc 1 225 1 view .LVU154
 753              		.align	2
 754              	.L57:
 755 003c 00000000 		.word	.LANCHOR0
 756              		.cfi_endproc
 757              	.LFE144:
 759              		.section	.text.bmp280_get_pressure_and_temp,"ax",%progbits
 760              		.align	1
 761              		.global	bmp280_get_pressure_and_temp
 762              		.syntax unified
 763              		.thumb
 764              		.thumb_func
 766              	bmp280_get_pressure_and_temp:
ARM GAS  /var/folders/lr/lj34qkqj2c73hcmf5705x8480000gn/T//ccIJufSS.s 			page 19


 767              	.LVL51:
 768              	.LFB145:
 226:Core/Src/bmp280.c **** void bmp280_get_pressure_and_temp(uint32_t *pressure, uint32_t *temp)
 227:Core/Src/bmp280.c **** {
 769              		.loc 1 227 1 is_stmt 1 view -0
 770              		.cfi_startproc
 771              		@ args = 0, pretend = 0, frame = 0
 772              		@ frame_needed = 0, uses_anonymous_args = 0
 773              		@ link register save eliminated.
 228:Core/Src/bmp280.c **** 	*pressure = currentPress;
 774              		.loc 1 228 2 view .LVU156
 775              		.loc 1 228 12 is_stmt 0 view .LVU157
 776 0000 034B     		ldr	r3, .L60
 777 0002 1B68     		ldr	r3, [r3]
 778 0004 0360     		str	r3, [r0]
 229:Core/Src/bmp280.c **** 	*temp = currentTemp;
 779              		.loc 1 229 2 is_stmt 1 view .LVU158
 780              		.loc 1 229 8 is_stmt 0 view .LVU159
 781 0006 034B     		ldr	r3, .L60+4
 782 0008 1B68     		ldr	r3, [r3]
 783 000a 0B60     		str	r3, [r1]
 230:Core/Src/bmp280.c **** }
 784              		.loc 1 230 1 view .LVU160
 785 000c 7047     		bx	lr
 786              	.L61:
 787 000e 00BF     		.align	2
 788              	.L60:
 789 0010 00000000 		.word	currentPress
 790 0014 00000000 		.word	currentTemp
 791              		.cfi_endproc
 792              	.LFE145:
 794              		.section	.text.HAL_SPI_RxCpltCallback,"ax",%progbits
 795              		.align	1
 796              		.global	HAL_SPI_RxCpltCallback
 797              		.syntax unified
 798              		.thumb
 799              		.thumb_func
 801              	HAL_SPI_RxCpltCallback:
 802              	.LVL52:
 803              	.LFB146:
 231:Core/Src/bmp280.c **** 
 232:Core/Src/bmp280.c **** void HAL_SPI_RxCpltCallback(SPI_HandleTypeDef *hspi)
 233:Core/Src/bmp280.c **** {
 804              		.loc 1 233 1 is_stmt 1 view -0
 805              		.cfi_startproc
 806              		@ args = 0, pretend = 0, frame = 0
 807              		@ frame_needed = 0, uses_anonymous_args = 0
 808              		@ link register save eliminated.
 234:Core/Src/bmp280.c **** 
 235:Core/Src/bmp280.c **** 	switch (currentOp)
 809              		.loc 1 235 2 view .LVU162
 810 0000 1A4B     		ldr	r3, .L68
 811 0002 1B78     		ldrb	r3, [r3]	@ zero_extendqisi2
 812 0004 062B     		cmp	r3, #6
 813 0006 07D0     		beq	.L63
 814 0008 072B     		cmp	r3, #7
 815 000a 1BD0     		beq	.L64
ARM GAS  /var/folders/lr/lj34qkqj2c73hcmf5705x8480000gn/T//ccIJufSS.s 			page 20


 816 000c 052B     		cmp	r3, #5
 817 000e 0ED0     		beq	.L67
 818              	.L66:
 236:Core/Src/bmp280.c **** 	{
 237:Core/Src/bmp280.c **** 
 238:Core/Src/bmp280.c **** 	case BMP280_GET_PRESS:
 239:Core/Src/bmp280.c **** 
 240:Core/Src/bmp280.c **** 		currentPress = rdbuf[0] << 11 | rdbuf[1] << 3 | rdbuf[2];
 241:Core/Src/bmp280.c **** 
 242:Core/Src/bmp280.c **** 		break;
 243:Core/Src/bmp280.c **** 	case BMP280_GET_TEMP:
 244:Core/Src/bmp280.c **** 		currentTemp = rdbuf[0] << 11 | rdbuf[1] << 3 | rdbuf[2];
 245:Core/Src/bmp280.c **** 		break;
 246:Core/Src/bmp280.c **** 	case BMP280_GET_PRESS_TEMP:
 247:Core/Src/bmp280.c **** 		currentPress = rdbuf[0] << 11 | rdbuf[1] << 3 | rdbuf[2];
 248:Core/Src/bmp280.c **** 		currentTemp = rdbuf[3] << 11 | rdbuf[4] << 3 | rdbuf[5];
 249:Core/Src/bmp280.c **** 		break;
 250:Core/Src/bmp280.c **** 	default:
 251:Core/Src/bmp280.c **** 		break;
 252:Core/Src/bmp280.c **** 	}
 253:Core/Src/bmp280.c **** 
 254:Core/Src/bmp280.c **** 	currentOp = BMP280_IDLE;
 819              		.loc 1 254 2 view .LVU163
 820              		.loc 1 254 12 is_stmt 0 view .LVU164
 821 0010 164B     		ldr	r3, .L68
 822 0012 0022     		movs	r2, #0
 823 0014 1A70     		strb	r2, [r3]
 255:Core/Src/bmp280.c **** }
 824              		.loc 1 255 1 view .LVU165
 825 0016 7047     		bx	lr
 826              	.L63:
 240:Core/Src/bmp280.c **** 
 827              		.loc 1 240 3 is_stmt 1 view .LVU166
 240:Core/Src/bmp280.c **** 
 828              		.loc 1 240 23 is_stmt 0 view .LVU167
 829 0018 154A     		ldr	r2, .L68+4
 830 001a 1178     		ldrb	r1, [r2]	@ zero_extendqisi2
 240:Core/Src/bmp280.c **** 
 831              		.loc 1 240 40 view .LVU168
 832 001c 5378     		ldrb	r3, [r2, #1]	@ zero_extendqisi2
 240:Core/Src/bmp280.c **** 
 833              		.loc 1 240 44 view .LVU169
 834 001e DB00     		lsls	r3, r3, #3
 240:Core/Src/bmp280.c **** 
 835              		.loc 1 240 33 view .LVU170
 836 0020 43EAC123 		orr	r3, r3, r1, lsl #11
 240:Core/Src/bmp280.c **** 
 837              		.loc 1 240 56 view .LVU171
 838 0024 9278     		ldrb	r2, [r2, #2]	@ zero_extendqisi2
 240:Core/Src/bmp280.c **** 
 839              		.loc 1 240 49 view .LVU172
 840 0026 1343     		orrs	r3, r3, r2
 240:Core/Src/bmp280.c **** 
 841              		.loc 1 240 16 view .LVU173
 842 0028 124A     		ldr	r2, .L68+8
 843 002a 1360     		str	r3, [r2]
 242:Core/Src/bmp280.c **** 	case BMP280_GET_TEMP:
ARM GAS  /var/folders/lr/lj34qkqj2c73hcmf5705x8480000gn/T//ccIJufSS.s 			page 21


 844              		.loc 1 242 3 is_stmt 1 view .LVU174
 845 002c F0E7     		b	.L66
 846              	.L67:
 244:Core/Src/bmp280.c **** 		break;
 847              		.loc 1 244 3 view .LVU175
 244:Core/Src/bmp280.c **** 		break;
 848              		.loc 1 244 22 is_stmt 0 view .LVU176
 849 002e 104A     		ldr	r2, .L68+4
 850 0030 1178     		ldrb	r1, [r2]	@ zero_extendqisi2
 244:Core/Src/bmp280.c **** 		break;
 851              		.loc 1 244 39 view .LVU177
 852 0032 5378     		ldrb	r3, [r2, #1]	@ zero_extendqisi2
 244:Core/Src/bmp280.c **** 		break;
 853              		.loc 1 244 43 view .LVU178
 854 0034 DB00     		lsls	r3, r3, #3
 244:Core/Src/bmp280.c **** 		break;
 855              		.loc 1 244 32 view .LVU179
 856 0036 43EAC123 		orr	r3, r3, r1, lsl #11
 244:Core/Src/bmp280.c **** 		break;
 857              		.loc 1 244 55 view .LVU180
 858 003a 9278     		ldrb	r2, [r2, #2]	@ zero_extendqisi2
 244:Core/Src/bmp280.c **** 		break;
 859              		.loc 1 244 48 view .LVU181
 860 003c 1343     		orrs	r3, r3, r2
 244:Core/Src/bmp280.c **** 		break;
 861              		.loc 1 244 15 view .LVU182
 862 003e 0E4A     		ldr	r2, .L68+12
 863 0040 1360     		str	r3, [r2]
 245:Core/Src/bmp280.c **** 	case BMP280_GET_PRESS_TEMP:
 864              		.loc 1 245 3 is_stmt 1 view .LVU183
 865 0042 E5E7     		b	.L66
 866              	.L64:
 247:Core/Src/bmp280.c **** 		currentTemp = rdbuf[3] << 11 | rdbuf[4] << 3 | rdbuf[5];
 867              		.loc 1 247 3 view .LVU184
 247:Core/Src/bmp280.c **** 		currentTemp = rdbuf[3] << 11 | rdbuf[4] << 3 | rdbuf[5];
 868              		.loc 1 247 23 is_stmt 0 view .LVU185
 869 0044 0A4A     		ldr	r2, .L68+4
 870 0046 1178     		ldrb	r1, [r2]	@ zero_extendqisi2
 247:Core/Src/bmp280.c **** 		currentTemp = rdbuf[3] << 11 | rdbuf[4] << 3 | rdbuf[5];
 871              		.loc 1 247 40 view .LVU186
 872 0048 5378     		ldrb	r3, [r2, #1]	@ zero_extendqisi2
 247:Core/Src/bmp280.c **** 		currentTemp = rdbuf[3] << 11 | rdbuf[4] << 3 | rdbuf[5];
 873              		.loc 1 247 44 view .LVU187
 874 004a DB00     		lsls	r3, r3, #3
 247:Core/Src/bmp280.c **** 		currentTemp = rdbuf[3] << 11 | rdbuf[4] << 3 | rdbuf[5];
 875              		.loc 1 247 33 view .LVU188
 876 004c 43EAC123 		orr	r3, r3, r1, lsl #11
 247:Core/Src/bmp280.c **** 		currentTemp = rdbuf[3] << 11 | rdbuf[4] << 3 | rdbuf[5];
 877              		.loc 1 247 56 view .LVU189
 878 0050 9178     		ldrb	r1, [r2, #2]	@ zero_extendqisi2
 247:Core/Src/bmp280.c **** 		currentTemp = rdbuf[3] << 11 | rdbuf[4] << 3 | rdbuf[5];
 879              		.loc 1 247 49 view .LVU190
 880 0052 0B43     		orrs	r3, r3, r1
 247:Core/Src/bmp280.c **** 		currentTemp = rdbuf[3] << 11 | rdbuf[4] << 3 | rdbuf[5];
 881              		.loc 1 247 16 view .LVU191
 882 0054 0749     		ldr	r1, .L68+8
 883 0056 0B60     		str	r3, [r1]
ARM GAS  /var/folders/lr/lj34qkqj2c73hcmf5705x8480000gn/T//ccIJufSS.s 			page 22


 248:Core/Src/bmp280.c **** 		break;
 884              		.loc 1 248 3 is_stmt 1 view .LVU192
 248:Core/Src/bmp280.c **** 		break;
 885              		.loc 1 248 22 is_stmt 0 view .LVU193
 886 0058 D178     		ldrb	r1, [r2, #3]	@ zero_extendqisi2
 248:Core/Src/bmp280.c **** 		break;
 887              		.loc 1 248 39 view .LVU194
 888 005a 1379     		ldrb	r3, [r2, #4]	@ zero_extendqisi2
 248:Core/Src/bmp280.c **** 		break;
 889              		.loc 1 248 43 view .LVU195
 890 005c DB00     		lsls	r3, r3, #3
 248:Core/Src/bmp280.c **** 		break;
 891              		.loc 1 248 32 view .LVU196
 892 005e 43EAC123 		orr	r3, r3, r1, lsl #11
 248:Core/Src/bmp280.c **** 		break;
 893              		.loc 1 248 55 view .LVU197
 894 0062 5279     		ldrb	r2, [r2, #5]	@ zero_extendqisi2
 248:Core/Src/bmp280.c **** 		break;
 895              		.loc 1 248 48 view .LVU198
 896 0064 1343     		orrs	r3, r3, r2
 248:Core/Src/bmp280.c **** 		break;
 897              		.loc 1 248 15 view .LVU199
 898 0066 044A     		ldr	r2, .L68+12
 899 0068 1360     		str	r3, [r2]
 249:Core/Src/bmp280.c **** 	default:
 900              		.loc 1 249 3 is_stmt 1 view .LVU200
 901 006a D1E7     		b	.L66
 902              	.L69:
 903              		.align	2
 904              	.L68:
 905 006c 00000000 		.word	currentOp
 906 0070 00000000 		.word	rdbuf
 907 0074 00000000 		.word	currentPress
 908 0078 00000000 		.word	currentTemp
 909              		.cfi_endproc
 910              	.LFE146:
 912              		.section	.text.HAL_SPI_TxCpltCallback,"ax",%progbits
 913              		.align	1
 914              		.global	HAL_SPI_TxCpltCallback
 915              		.syntax unified
 916              		.thumb
 917              		.thumb_func
 919              	HAL_SPI_TxCpltCallback:
 920              	.LVL53:
 921              	.LFB147:
 256:Core/Src/bmp280.c **** void HAL_SPI_TxCpltCallback(SPI_HandleTypeDef *hspi)
 257:Core/Src/bmp280.c **** {
 922              		.loc 1 257 1 view -0
 923              		.cfi_startproc
 924              		@ args = 0, pretend = 0, frame = 0
 925              		@ frame_needed = 0, uses_anonymous_args = 0
 926              		@ link register save eliminated.
 258:Core/Src/bmp280.c **** 	currentOp = BMP280_IDLE;
 927              		.loc 1 258 2 view .LVU202
 928              		.loc 1 258 12 is_stmt 0 view .LVU203
 929 0000 014B     		ldr	r3, .L71
 930 0002 0022     		movs	r2, #0
ARM GAS  /var/folders/lr/lj34qkqj2c73hcmf5705x8480000gn/T//ccIJufSS.s 			page 23


 931 0004 1A70     		strb	r2, [r3]
 259:Core/Src/bmp280.c **** }
 932              		.loc 1 259 1 view .LVU204
 933 0006 7047     		bx	lr
 934              	.L72:
 935              		.align	2
 936              	.L71:
 937 0008 00000000 		.word	currentOp
 938              		.cfi_endproc
 939              	.LFE147:
 941              		.section	.text.HAL_SPI_TxRxCpltCallback,"ax",%progbits
 942              		.align	1
 943              		.global	HAL_SPI_TxRxCpltCallback
 944              		.syntax unified
 945              		.thumb
 946              		.thumb_func
 948              	HAL_SPI_TxRxCpltCallback:
 949              	.LVL54:
 950              	.LFB148:
 260:Core/Src/bmp280.c **** void HAL_SPI_TxRxCpltCallback(SPI_HandleTypeDef *hspi)
 261:Core/Src/bmp280.c **** {
 951              		.loc 1 261 1 is_stmt 1 view -0
 952              		.cfi_startproc
 953              		@ args = 0, pretend = 0, frame = 0
 954              		@ frame_needed = 0, uses_anonymous_args = 0
 955              		@ link register save eliminated.
 262:Core/Src/bmp280.c **** 	currentOp = BMP280_IDLE;
 956              		.loc 1 262 2 view .LVU206
 957              		.loc 1 262 12 is_stmt 0 view .LVU207
 958 0000 014B     		ldr	r3, .L74
 959 0002 0022     		movs	r2, #0
 960 0004 1A70     		strb	r2, [r3]
 263:Core/Src/bmp280.c **** }
 961              		.loc 1 263 1 view .LVU208
 962 0006 7047     		bx	lr
 963              	.L75:
 964              		.align	2
 965              	.L74:
 966 0008 00000000 		.word	currentOp
 967              		.cfi_endproc
 968              	.LFE148:
 970              		.section	.bss.configVal.0,"aw",%nobits
 973              	configVal.0:
 974 0000 00       		.space	1
 975              		.section	.bss.ctrlVal.1,"aw",%nobits
 978              	ctrlVal.1:
 979 0000 00       		.space	1
 980              		.section	.rodata.RESET_CMD.2,"a"
 983              	RESET_CMD.2:
 984 0000 B6       		.byte	-74
 985              		.global	currentPress
 986              		.section	.bss.currentPress,"aw",%nobits
 987              		.align	2
 990              	currentPress:
 991 0000 00000000 		.space	4
 992              		.global	currentTemp
 993              		.section	.bss.currentTemp,"aw",%nobits
ARM GAS  /var/folders/lr/lj34qkqj2c73hcmf5705x8480000gn/T//ccIJufSS.s 			page 24


 994              		.align	2
 997              	currentTemp:
 998 0000 00000000 		.space	4
 999              		.global	currentOp
 1000              		.section	.bss.currentOp,"aw",%nobits
 1003              	currentOp:
 1004 0000 00       		.space	1
 1005              		.global	trim_values
 1006              		.section	.bss.trim_values,"aw",%nobits
 1007              		.align	2
 1010              	trim_values:
 1011 0000 00000000 		.space	32
 1011      00000000 
 1011      00000000 
 1011      00000000 
 1011      00000000 
 1012              		.global	userTxCb
 1013              		.section	.bss.userTxCb,"aw",%nobits
 1014              		.align	2
 1017              	userTxCb:
 1018 0000 00000000 		.space	4
 1019              		.global	userRxCb
 1020              		.section	.bss.userRxCb,"aw",%nobits
 1021              		.align	2
 1024              	userRxCb:
 1025 0000 00000000 		.space	4
 1026              		.section	.bss.wrLen,"aw",%nobits
 1027              		.align	2
 1030              	wrLen:
 1031 0000 00000000 		.space	4
 1032              		.section	.bss.rdLen,"aw",%nobits
 1033              		.align	2
 1036              	rdLen:
 1037 0000 00000000 		.space	4
 1038              		.section	.bss.rdbuf,"aw",%nobits
 1039              		.align	2
 1042              	rdbuf:
 1043 0000 00000000 		.space	32
 1043      00000000 
 1043      00000000 
 1043      00000000 
 1043      00000000 
 1044              		.section	.bss.wrbuf,"aw",%nobits
 1045              		.align	2
 1048              	wrbuf:
 1049 0000 00000000 		.space	32
 1049      00000000 
 1049      00000000 
 1049      00000000 
 1049      00000000 
 1050              		.section	.rodata
 1051              		.align	2
 1052              		.set	.LANCHOR0,. + 0
 1053              	.LC0:
 1054 0000 0000     		.ascii	"\000\000"
 1055 0002 00       		.space	1
 1056              		.text
ARM GAS  /var/folders/lr/lj34qkqj2c73hcmf5705x8480000gn/T//ccIJufSS.s 			page 25


 1057              	.Letext0:
 1058              		.file 2 "/Applications/ArmGNUToolchain/12.2.mpacbti-rel1/arm-none-eabi/arm-none-eabi/include/machi
 1059              		.file 3 "/Applications/ArmGNUToolchain/12.2.mpacbti-rel1/arm-none-eabi/arm-none-eabi/include/sys/_
 1060              		.file 4 "Core/Inc/bmp280.h"
 1061              		.file 5 "Drivers/CMSIS/Device/ST/STM32F4xx/Include/stm32f401xc.h"
 1062              		.file 6 "/Applications/ArmGNUToolchain/12.2.mpacbti-rel1/arm-none-eabi/lib/gcc/arm-none-eabi/12.2.
 1063              		.file 7 "Drivers/STM32F4xx_HAL_Driver/Inc/stm32f4xx_hal_def.h"
 1064              		.file 8 "Drivers/STM32F4xx_HAL_Driver/Inc/stm32f4xx_hal_gpio.h"
 1065              		.file 9 "Drivers/STM32F4xx_HAL_Driver/Inc/stm32f4xx_hal_dma.h"
 1066              		.file 10 "Drivers/STM32F4xx_HAL_Driver/Inc/stm32f4xx_hal_spi.h"
 1067              		.file 11 "/Applications/ArmGNUToolchain/12.2.mpacbti-rel1/arm-none-eabi/arm-none-eabi/include/stri
 1068              		.file 12 "<built-in>"
ARM GAS  /var/folders/lr/lj34qkqj2c73hcmf5705x8480000gn/T//ccIJufSS.s 			page 26


DEFINED SYMBOLS
                            *ABS*:00000000 bmp280.c
/var/folders/lr/lj34qkqj2c73hcmf5705x8480000gn/T//ccIJufSS.s:21     .text.bmp280_read_sync:00000000 $t
/var/folders/lr/lj34qkqj2c73hcmf5705x8480000gn/T//ccIJufSS.s:26     .text.bmp280_read_sync:00000000 bmp280_read_sync
/var/folders/lr/lj34qkqj2c73hcmf5705x8480000gn/T//ccIJufSS.s:104    .text.bmp280_read_sync:00000054 $d
/var/folders/lr/lj34qkqj2c73hcmf5705x8480000gn/T//ccIJufSS.s:1036   .bss.rdLen:00000000 rdLen
/var/folders/lr/lj34qkqj2c73hcmf5705x8480000gn/T//ccIJufSS.s:111    .text.bmp280_write_async:00000000 $t
/var/folders/lr/lj34qkqj2c73hcmf5705x8480000gn/T//ccIJufSS.s:116    .text.bmp280_write_async:00000000 bmp280_write_async
/var/folders/lr/lj34qkqj2c73hcmf5705x8480000gn/T//ccIJufSS.s:189    .text.bmp280_write_async:0000003c $d
/var/folders/lr/lj34qkqj2c73hcmf5705x8480000gn/T//ccIJufSS.s:1003   .bss.currentOp:00000000 currentOp
/var/folders/lr/lj34qkqj2c73hcmf5705x8480000gn/T//ccIJufSS.s:1048   .bss.wrbuf:00000000 wrbuf
/var/folders/lr/lj34qkqj2c73hcmf5705x8480000gn/T//ccIJufSS.s:1030   .bss.wrLen:00000000 wrLen
/var/folders/lr/lj34qkqj2c73hcmf5705x8480000gn/T//ccIJufSS.s:197    .text.bmp280_read_async:00000000 $t
/var/folders/lr/lj34qkqj2c73hcmf5705x8480000gn/T//ccIJufSS.s:202    .text.bmp280_read_async:00000000 bmp280_read_async
/var/folders/lr/lj34qkqj2c73hcmf5705x8480000gn/T//ccIJufSS.s:276    .text.bmp280_read_async:0000003c $d
/var/folders/lr/lj34qkqj2c73hcmf5705x8480000gn/T//ccIJufSS.s:1042   .bss.rdbuf:00000000 rdbuf
/var/folders/lr/lj34qkqj2c73hcmf5705x8480000gn/T//ccIJufSS.s:285    .text.bmp280_getid:00000000 $t
/var/folders/lr/lj34qkqj2c73hcmf5705x8480000gn/T//ccIJufSS.s:291    .text.bmp280_getid:00000000 bmp280_getid
/var/folders/lr/lj34qkqj2c73hcmf5705x8480000gn/T//ccIJufSS.s:321    .text.bmp280_init:00000000 $t
/var/folders/lr/lj34qkqj2c73hcmf5705x8480000gn/T//ccIJufSS.s:327    .text.bmp280_init:00000000 bmp280_init
/var/folders/lr/lj34qkqj2c73hcmf5705x8480000gn/T//ccIJufSS.s:399    .text.bmp280_init:0000003c $d
/var/folders/lr/lj34qkqj2c73hcmf5705x8480000gn/T//ccIJufSS.s:1010   .bss.trim_values:00000000 trim_values
/var/folders/lr/lj34qkqj2c73hcmf5705x8480000gn/T//ccIJufSS.s:1024   .bss.userRxCb:00000000 userRxCb
/var/folders/lr/lj34qkqj2c73hcmf5705x8480000gn/T//ccIJufSS.s:1017   .bss.userTxCb:00000000 userTxCb
/var/folders/lr/lj34qkqj2c73hcmf5705x8480000gn/T//ccIJufSS.s:406    .text.bmp280_reset:00000000 $t
/var/folders/lr/lj34qkqj2c73hcmf5705x8480000gn/T//ccIJufSS.s:412    .text.bmp280_reset:00000000 bmp280_reset
/var/folders/lr/lj34qkqj2c73hcmf5705x8480000gn/T//ccIJufSS.s:436    .text.bmp280_reset:00000010 $d
/var/folders/lr/lj34qkqj2c73hcmf5705x8480000gn/T//ccIJufSS.s:983    .rodata.RESET_CMD.2:00000000 RESET_CMD.2
/var/folders/lr/lj34qkqj2c73hcmf5705x8480000gn/T//ccIJufSS.s:441    .text.bmp280_set_ctrl_meas:00000000 $t
/var/folders/lr/lj34qkqj2c73hcmf5705x8480000gn/T//ccIJufSS.s:447    .text.bmp280_set_ctrl_meas:00000000 bmp280_set_ctrl_meas
/var/folders/lr/lj34qkqj2c73hcmf5705x8480000gn/T//ccIJufSS.s:491    .text.bmp280_set_ctrl_meas:00000024 $d
/var/folders/lr/lj34qkqj2c73hcmf5705x8480000gn/T//ccIJufSS.s:978    .bss.ctrlVal.1:00000000 ctrlVal.1
/var/folders/lr/lj34qkqj2c73hcmf5705x8480000gn/T//ccIJufSS.s:496    .text.bmp280_set_config:00000000 $t
/var/folders/lr/lj34qkqj2c73hcmf5705x8480000gn/T//ccIJufSS.s:502    .text.bmp280_set_config:00000000 bmp280_set_config
/var/folders/lr/lj34qkqj2c73hcmf5705x8480000gn/T//ccIJufSS.s:547    .text.bmp280_set_config:00000024 $d
/var/folders/lr/lj34qkqj2c73hcmf5705x8480000gn/T//ccIJufSS.s:973    .bss.configVal.0:00000000 configVal.0
/var/folders/lr/lj34qkqj2c73hcmf5705x8480000gn/T//ccIJufSS.s:552    .text.bmp280_start_press_read:00000000 $t
/var/folders/lr/lj34qkqj2c73hcmf5705x8480000gn/T//ccIJufSS.s:558    .text.bmp280_start_press_read:00000000 bmp280_start_press_read
/var/folders/lr/lj34qkqj2c73hcmf5705x8480000gn/T//ccIJufSS.s:583    .text.bmp280_start_press_read:00000010 $d
/var/folders/lr/lj34qkqj2c73hcmf5705x8480000gn/T//ccIJufSS.s:588    .text.bmp280_start_temp_read:00000000 $t
/var/folders/lr/lj34qkqj2c73hcmf5705x8480000gn/T//ccIJufSS.s:594    .text.bmp280_start_temp_read:00000000 bmp280_start_temp_read
/var/folders/lr/lj34qkqj2c73hcmf5705x8480000gn/T//ccIJufSS.s:619    .text.bmp280_start_temp_read:00000010 $d
/var/folders/lr/lj34qkqj2c73hcmf5705x8480000gn/T//ccIJufSS.s:624    .text.bmp280_read_pressure_and_temperature:00000000 $t
/var/folders/lr/lj34qkqj2c73hcmf5705x8480000gn/T//ccIJufSS.s:630    .text.bmp280_read_pressure_and_temperature:00000000 bmp280_read_pressure_and_temperature
/var/folders/lr/lj34qkqj2c73hcmf5705x8480000gn/T//ccIJufSS.s:655    .text.bmp280_read_pressure_and_temperature:00000010 $d
/var/folders/lr/lj34qkqj2c73hcmf5705x8480000gn/T//ccIJufSS.s:660    .text.bmp280_get_pressure:00000000 $t
/var/folders/lr/lj34qkqj2c73hcmf5705x8480000gn/T//ccIJufSS.s:666    .text.bmp280_get_pressure:00000000 bmp280_get_pressure
/var/folders/lr/lj34qkqj2c73hcmf5705x8480000gn/T//ccIJufSS.s:681    .text.bmp280_get_pressure:00000008 $d
/var/folders/lr/lj34qkqj2c73hcmf5705x8480000gn/T//ccIJufSS.s:990    .bss.currentPress:00000000 currentPress
/var/folders/lr/lj34qkqj2c73hcmf5705x8480000gn/T//ccIJufSS.s:686    .text.bmp280_get_temp:00000000 $t
/var/folders/lr/lj34qkqj2c73hcmf5705x8480000gn/T//ccIJufSS.s:692    .text.bmp280_get_temp:00000000 bmp280_get_temp
/var/folders/lr/lj34qkqj2c73hcmf5705x8480000gn/T//ccIJufSS.s:755    .text.bmp280_get_temp:0000003c $d
/var/folders/lr/lj34qkqj2c73hcmf5705x8480000gn/T//ccIJufSS.s:760    .text.bmp280_get_pressure_and_temp:00000000 $t
/var/folders/lr/lj34qkqj2c73hcmf5705x8480000gn/T//ccIJufSS.s:766    .text.bmp280_get_pressure_and_temp:00000000 bmp280_get_pressure_and_temp
/var/folders/lr/lj34qkqj2c73hcmf5705x8480000gn/T//ccIJufSS.s:789    .text.bmp280_get_pressure_and_temp:00000010 $d
/var/folders/lr/lj34qkqj2c73hcmf5705x8480000gn/T//ccIJufSS.s:997    .bss.currentTemp:00000000 currentTemp
/var/folders/lr/lj34qkqj2c73hcmf5705x8480000gn/T//ccIJufSS.s:795    .text.HAL_SPI_RxCpltCallback:00000000 $t
ARM GAS  /var/folders/lr/lj34qkqj2c73hcmf5705x8480000gn/T//ccIJufSS.s 			page 27


/var/folders/lr/lj34qkqj2c73hcmf5705x8480000gn/T//ccIJufSS.s:801    .text.HAL_SPI_RxCpltCallback:00000000 HAL_SPI_RxCpltCallback
/var/folders/lr/lj34qkqj2c73hcmf5705x8480000gn/T//ccIJufSS.s:905    .text.HAL_SPI_RxCpltCallback:0000006c $d
/var/folders/lr/lj34qkqj2c73hcmf5705x8480000gn/T//ccIJufSS.s:913    .text.HAL_SPI_TxCpltCallback:00000000 $t
/var/folders/lr/lj34qkqj2c73hcmf5705x8480000gn/T//ccIJufSS.s:919    .text.HAL_SPI_TxCpltCallback:00000000 HAL_SPI_TxCpltCallback
/var/folders/lr/lj34qkqj2c73hcmf5705x8480000gn/T//ccIJufSS.s:937    .text.HAL_SPI_TxCpltCallback:00000008 $d
/var/folders/lr/lj34qkqj2c73hcmf5705x8480000gn/T//ccIJufSS.s:942    .text.HAL_SPI_TxRxCpltCallback:00000000 $t
/var/folders/lr/lj34qkqj2c73hcmf5705x8480000gn/T//ccIJufSS.s:948    .text.HAL_SPI_TxRxCpltCallback:00000000 HAL_SPI_TxRxCpltCallback
/var/folders/lr/lj34qkqj2c73hcmf5705x8480000gn/T//ccIJufSS.s:966    .text.HAL_SPI_TxRxCpltCallback:00000008 $d
/var/folders/lr/lj34qkqj2c73hcmf5705x8480000gn/T//ccIJufSS.s:974    .bss.configVal.0:00000000 $d
/var/folders/lr/lj34qkqj2c73hcmf5705x8480000gn/T//ccIJufSS.s:979    .bss.ctrlVal.1:00000000 $d
/var/folders/lr/lj34qkqj2c73hcmf5705x8480000gn/T//ccIJufSS.s:987    .bss.currentPress:00000000 $d
/var/folders/lr/lj34qkqj2c73hcmf5705x8480000gn/T//ccIJufSS.s:994    .bss.currentTemp:00000000 $d
/var/folders/lr/lj34qkqj2c73hcmf5705x8480000gn/T//ccIJufSS.s:1004   .bss.currentOp:00000000 $d
/var/folders/lr/lj34qkqj2c73hcmf5705x8480000gn/T//ccIJufSS.s:1007   .bss.trim_values:00000000 $d
/var/folders/lr/lj34qkqj2c73hcmf5705x8480000gn/T//ccIJufSS.s:1014   .bss.userTxCb:00000000 $d
/var/folders/lr/lj34qkqj2c73hcmf5705x8480000gn/T//ccIJufSS.s:1021   .bss.userRxCb:00000000 $d
/var/folders/lr/lj34qkqj2c73hcmf5705x8480000gn/T//ccIJufSS.s:1027   .bss.wrLen:00000000 $d
/var/folders/lr/lj34qkqj2c73hcmf5705x8480000gn/T//ccIJufSS.s:1033   .bss.rdLen:00000000 $d
/var/folders/lr/lj34qkqj2c73hcmf5705x8480000gn/T//ccIJufSS.s:1039   .bss.rdbuf:00000000 $d
/var/folders/lr/lj34qkqj2c73hcmf5705x8480000gn/T//ccIJufSS.s:1045   .bss.wrbuf:00000000 $d
/var/folders/lr/lj34qkqj2c73hcmf5705x8480000gn/T//ccIJufSS.s:1051   .rodata:00000000 $d

UNDEFINED SYMBOLS
HAL_GPIO_WritePin
HAL_SPI_Transmit
HAL_SPI_Receive
hspi1
memcpy
HAL_SPI_Transmit_DMA
memset
HAL_SPI_TransmitReceive_DMA
