ARM GAS  /tmp/ccXuDrgd.s 			page 1


   1              		.cpu cortex-m4
   2              		.arch armv7e-m
   3              		.fpu fpv4-sp-d16
   4              		.eabi_attribute 27, 1
   5              		.eabi_attribute 28, 1
   6              		.eabi_attribute 20, 1
   7              		.eabi_attribute 21, 1
   8              		.eabi_attribute 23, 3
   9              		.eabi_attribute 24, 1
  10              		.eabi_attribute 25, 1
  11              		.eabi_attribute 26, 1
  12              		.eabi_attribute 30, 1
  13              		.eabi_attribute 34, 1
  14              		.eabi_attribute 18, 4
  15              		.file	"i2c.c"
  16              		.text
  17              	.Ltext0:
  18              		.cfi_sections	.debug_frame
  19              		.section	.text.i2c_write,"ax",%progbits
  20              		.align	1
  21              		.global	i2c_write
  22              		.syntax unified
  23              		.thumb
  24              		.thumb_func
  26              	i2c_write:
  27              	.LVL0:
  28              	.LFB130:
  29              		.file 1 "Core/Src/i2c.c"
   1:Core/Src/i2c.c **** #include "i2c.h"
   2:Core/Src/i2c.c **** #include "main.h"
   3:Core/Src/i2c.c **** 
   4:Core/Src/i2c.c **** extern I2C_HandleTypeDef hi2c3;
   5:Core/Src/i2c.c **** extern DMA_HandleTypeDef hdma_i2c3_rx;
   6:Core/Src/i2c.c **** extern DMA_HandleTypeDef hdma_i2c3_tx;
   7:Core/Src/i2c.c **** 
   8:Core/Src/i2c.c **** uint8_t i2c_write(uint8_t addr, uint8_t* buf, uint32_t len)
   9:Core/Src/i2c.c **** {
  30              		.loc 1 9 1 view -0
  31              		.cfi_startproc
  32              		@ args = 0, pretend = 0, frame = 0
  33              		@ frame_needed = 0, uses_anonymous_args = 0
  34              		.loc 1 9 1 is_stmt 0 view .LVU1
  35 0000 00B5     		push	{lr}
  36              	.LCFI0:
  37              		.cfi_def_cfa_offset 4
  38              		.cfi_offset 14, -4
  39 0002 83B0     		sub	sp, sp, #12
  40              	.LCFI1:
  41              		.cfi_def_cfa_offset 16
  10:Core/Src/i2c.c ****     return HAL_I2C_Master_Transmit(&hi2c3, addr,buf, len, HAL_MAX_DELAY);
  42              		.loc 1 10 5 is_stmt 1 view .LVU2
  43              		.loc 1 10 12 is_stmt 0 view .LVU3
  44 0004 4FF0FF33 		mov	r3, #-1
  45 0008 0093     		str	r3, [sp]
  46 000a 93B2     		uxth	r3, r2
  47 000c 0A46     		mov	r2, r1
  48              	.LVL1:
ARM GAS  /tmp/ccXuDrgd.s 			page 2


  49              		.loc 1 10 12 view .LVU4
  50 000e 0146     		mov	r1, r0
  51              	.LVL2:
  52              		.loc 1 10 12 view .LVU5
  53 0010 0248     		ldr	r0, .L3
  54              	.LVL3:
  55              		.loc 1 10 12 view .LVU6
  56 0012 FFF7FEFF 		bl	HAL_I2C_Master_Transmit
  57              	.LVL4:
  11:Core/Src/i2c.c **** }
  58              		.loc 1 11 1 view .LVU7
  59 0016 03B0     		add	sp, sp, #12
  60              	.LCFI2:
  61              		.cfi_def_cfa_offset 4
  62              		@ sp needed
  63 0018 5DF804FB 		ldr	pc, [sp], #4
  64              	.L4:
  65              		.align	2
  66              	.L3:
  67 001c 00000000 		.word	hi2c3
  68              		.cfi_endproc
  69              	.LFE130:
  71              		.section	.text.i2c_read,"ax",%progbits
  72              		.align	1
  73              		.global	i2c_read
  74              		.syntax unified
  75              		.thumb
  76              		.thumb_func
  78              	i2c_read:
  79              	.LVL5:
  80              	.LFB131:
  12:Core/Src/i2c.c **** 
  13:Core/Src/i2c.c **** uint8_t i2c_read(uint8_t addr, uint8_t* buf, uint32_t len)
  14:Core/Src/i2c.c **** {
  81              		.loc 1 14 1 is_stmt 1 view -0
  82              		.cfi_startproc
  83              		@ args = 0, pretend = 0, frame = 0
  84              		@ frame_needed = 0, uses_anonymous_args = 0
  85              		.loc 1 14 1 is_stmt 0 view .LVU9
  86 0000 00B5     		push	{lr}
  87              	.LCFI3:
  88              		.cfi_def_cfa_offset 4
  89              		.cfi_offset 14, -4
  90 0002 83B0     		sub	sp, sp, #12
  91              	.LCFI4:
  92              		.cfi_def_cfa_offset 16
  15:Core/Src/i2c.c ****     return HAL_I2C_Master_Receive(&hi2c3, addr, buf, len, HAL_MAX_DELAY);
  93              		.loc 1 15 5 is_stmt 1 view .LVU10
  94              		.loc 1 15 12 is_stmt 0 view .LVU11
  95 0004 4FF0FF33 		mov	r3, #-1
  96 0008 0093     		str	r3, [sp]
  97 000a 93B2     		uxth	r3, r2
  98 000c 0A46     		mov	r2, r1
  99              	.LVL6:
 100              		.loc 1 15 12 view .LVU12
 101 000e 0146     		mov	r1, r0
 102              	.LVL7:
ARM GAS  /tmp/ccXuDrgd.s 			page 3


 103              		.loc 1 15 12 view .LVU13
 104 0010 0248     		ldr	r0, .L7
 105              	.LVL8:
 106              		.loc 1 15 12 view .LVU14
 107 0012 FFF7FEFF 		bl	HAL_I2C_Master_Receive
 108              	.LVL9:
  16:Core/Src/i2c.c **** }
 109              		.loc 1 16 1 view .LVU15
 110 0016 03B0     		add	sp, sp, #12
 111              	.LCFI5:
 112              		.cfi_def_cfa_offset 4
 113              		@ sp needed
 114 0018 5DF804FB 		ldr	pc, [sp], #4
 115              	.L8:
 116              		.align	2
 117              	.L7:
 118 001c 00000000 		.word	hi2c3
 119              		.cfi_endproc
 120              	.LFE131:
 122              		.section	.text.i2c_write_dma,"ax",%progbits
 123              		.align	1
 124              		.global	i2c_write_dma
 125              		.syntax unified
 126              		.thumb
 127              		.thumb_func
 129              	i2c_write_dma:
 130              	.LVL10:
 131              	.LFB132:
  17:Core/Src/i2c.c **** uint8_t i2c_write_dma(uint8_t addr, uint8_t* buf, uint32_t len)
  18:Core/Src/i2c.c **** {
 132              		.loc 1 18 1 is_stmt 1 view -0
 133              		.cfi_startproc
 134              		@ args = 0, pretend = 0, frame = 0
 135              		@ frame_needed = 0, uses_anonymous_args = 0
 136              		.loc 1 18 1 is_stmt 0 view .LVU17
 137 0000 08B5     		push	{r3, lr}
 138              	.LCFI6:
 139              		.cfi_def_cfa_offset 8
 140              		.cfi_offset 3, -8
 141              		.cfi_offset 14, -4
  19:Core/Src/i2c.c ****     return HAL_I2C_Master_Transmit_DMA(&hi2c3, addr, buf, len);
 142              		.loc 1 19 5 is_stmt 1 view .LVU18
 143              		.loc 1 19 12 is_stmt 0 view .LVU19
 144 0002 93B2     		uxth	r3, r2
 145 0004 0A46     		mov	r2, r1
 146              	.LVL11:
 147              		.loc 1 19 12 view .LVU20
 148 0006 0146     		mov	r1, r0
 149              	.LVL12:
 150              		.loc 1 19 12 view .LVU21
 151 0008 0148     		ldr	r0, .L11
 152              	.LVL13:
 153              		.loc 1 19 12 view .LVU22
 154 000a FFF7FEFF 		bl	HAL_I2C_Master_Transmit_DMA
 155              	.LVL14:
  20:Core/Src/i2c.c **** }
 156              		.loc 1 20 1 view .LVU23
ARM GAS  /tmp/ccXuDrgd.s 			page 4


 157 000e 08BD     		pop	{r3, pc}
 158              	.L12:
 159              		.align	2
 160              	.L11:
 161 0010 00000000 		.word	hi2c3
 162              		.cfi_endproc
 163              	.LFE132:
 165              		.section	.text.i2c_read_dma,"ax",%progbits
 166              		.align	1
 167              		.global	i2c_read_dma
 168              		.syntax unified
 169              		.thumb
 170              		.thumb_func
 172              	i2c_read_dma:
 173              	.LVL15:
 174              	.LFB133:
  21:Core/Src/i2c.c **** uint8_t i2c_read_dma(uint8_t addr, uint8_t* buf, uint32_t len)
  22:Core/Src/i2c.c **** {
 175              		.loc 1 22 1 is_stmt 1 view -0
 176              		.cfi_startproc
 177              		@ args = 0, pretend = 0, frame = 0
 178              		@ frame_needed = 0, uses_anonymous_args = 0
 179              		.loc 1 22 1 is_stmt 0 view .LVU25
 180 0000 08B5     		push	{r3, lr}
 181              	.LCFI7:
 182              		.cfi_def_cfa_offset 8
 183              		.cfi_offset 3, -8
 184              		.cfi_offset 14, -4
  23:Core/Src/i2c.c ****     return HAL_I2C_Master_Receive_DMA(&hi2c3, addr, buf, len);
 185              		.loc 1 23 5 is_stmt 1 view .LVU26
 186              		.loc 1 23 12 is_stmt 0 view .LVU27
 187 0002 93B2     		uxth	r3, r2
 188 0004 0A46     		mov	r2, r1
 189              	.LVL16:
 190              		.loc 1 23 12 view .LVU28
 191 0006 0146     		mov	r1, r0
 192              	.LVL17:
 193              		.loc 1 23 12 view .LVU29
 194 0008 0148     		ldr	r0, .L15
 195              	.LVL18:
 196              		.loc 1 23 12 view .LVU30
 197 000a FFF7FEFF 		bl	HAL_I2C_Master_Receive_DMA
 198              	.LVL19:
  24:Core/Src/i2c.c **** }
 199              		.loc 1 24 1 view .LVU31
 200 000e 08BD     		pop	{r3, pc}
 201              	.L16:
 202              		.align	2
 203              	.L15:
 204 0010 00000000 		.word	hi2c3
 205              		.cfi_endproc
 206              	.LFE133:
 208              		.section	.text.i2c_write_mem,"ax",%progbits
 209              		.align	1
 210              		.global	i2c_write_mem
 211              		.syntax unified
 212              		.thumb
ARM GAS  /tmp/ccXuDrgd.s 			page 5


 213              		.thumb_func
 215              	i2c_write_mem:
 216              	.LVL20:
 217              	.LFB134:
  25:Core/Src/i2c.c **** 
  26:Core/Src/i2c.c **** uint8_t i2c_write_mem(uint16_t device_addr, uint16_t memaddr, uint8_t *data, uint32_t len)
  27:Core/Src/i2c.c **** {
 218              		.loc 1 27 1 is_stmt 1 view -0
 219              		.cfi_startproc
 220              		@ args = 0, pretend = 0, frame = 0
 221              		@ frame_needed = 0, uses_anonymous_args = 0
 222              		.loc 1 27 1 is_stmt 0 view .LVU33
 223 0000 10B5     		push	{r4, lr}
 224              	.LCFI8:
 225              		.cfi_def_cfa_offset 8
 226              		.cfi_offset 4, -8
 227              		.cfi_offset 14, -4
 228 0002 84B0     		sub	sp, sp, #16
 229              	.LCFI9:
 230              		.cfi_def_cfa_offset 24
  28:Core/Src/i2c.c ****     HAL_I2C_Mem_Write(&hi2c3, device_addr, memaddr, sizeof(uint8_t), data, len, HAL_MAX_DELAY);
 231              		.loc 1 28 5 is_stmt 1 view .LVU34
 232 0004 4FF0FF34 		mov	r4, #-1
 233 0008 0294     		str	r4, [sp, #8]
 234 000a 9BB2     		uxth	r3, r3
 235              	.LVL21:
 236              		.loc 1 28 5 is_stmt 0 view .LVU35
 237 000c 0193     		str	r3, [sp, #4]
 238 000e 0092     		str	r2, [sp]
 239 0010 0123     		movs	r3, #1
 240 0012 0A46     		mov	r2, r1
 241              	.LVL22:
 242              		.loc 1 28 5 view .LVU36
 243 0014 0146     		mov	r1, r0
 244              	.LVL23:
 245              		.loc 1 28 5 view .LVU37
 246 0016 0248     		ldr	r0, .L19
 247              	.LVL24:
 248              		.loc 1 28 5 view .LVU38
 249 0018 FFF7FEFF 		bl	HAL_I2C_Mem_Write
 250              	.LVL25:
  29:Core/Src/i2c.c **** }
 251              		.loc 1 29 1 view .LVU39
 252 001c 04B0     		add	sp, sp, #16
 253              	.LCFI10:
 254              		.cfi_def_cfa_offset 8
 255              		@ sp needed
 256 001e 10BD     		pop	{r4, pc}
 257              	.L20:
 258              		.align	2
 259              	.L19:
 260 0020 00000000 		.word	hi2c3
 261              		.cfi_endproc
 262              	.LFE134:
 264              		.section	.text.i2c_device_acks,"ax",%progbits
 265              		.align	1
 266              		.global	i2c_device_acks
ARM GAS  /tmp/ccXuDrgd.s 			page 6


 267              		.syntax unified
 268              		.thumb
 269              		.thumb_func
 271              	i2c_device_acks:
 272              	.LVL26:
 273              	.LFB135:
  30:Core/Src/i2c.c **** uint8_t i2c_device_acks(uint8_t addr, uint32_t attempts)
  31:Core/Src/i2c.c **** {
 274              		.loc 1 31 1 is_stmt 1 view -0
 275              		.cfi_startproc
 276              		@ args = 0, pretend = 0, frame = 0
 277              		@ frame_needed = 0, uses_anonymous_args = 0
 278              		.loc 1 31 1 is_stmt 0 view .LVU41
 279 0000 08B5     		push	{r3, lr}
 280              	.LCFI11:
 281              		.cfi_def_cfa_offset 8
 282              		.cfi_offset 3, -8
 283              		.cfi_offset 14, -4
 284 0002 0A46     		mov	r2, r1
  32:Core/Src/i2c.c ****     return HAL_I2C_IsDeviceReady(&hi2c3, addr, attempts, HAL_MAX_DELAY);
 285              		.loc 1 32 5 is_stmt 1 view .LVU42
 286              		.loc 1 32 12 is_stmt 0 view .LVU43
 287 0004 4FF0FF33 		mov	r3, #-1
 288 0008 0146     		mov	r1, r0
 289              	.LVL27:
 290              		.loc 1 32 12 view .LVU44
 291 000a 0248     		ldr	r0, .L23
 292              	.LVL28:
 293              		.loc 1 32 12 view .LVU45
 294 000c FFF7FEFF 		bl	HAL_I2C_IsDeviceReady
 295              	.LVL29:
  33:Core/Src/i2c.c **** }
 296              		.loc 1 33 1 view .LVU46
 297 0010 08BD     		pop	{r3, pc}
 298              	.L24:
 299 0012 00BF     		.align	2
 300              	.L23:
 301 0014 00000000 		.word	hi2c3
 302              		.cfi_endproc
 303              	.LFE135:
 305              		.section	.text.HAL_I2C_MasterTxCpltCallback,"ax",%progbits
 306              		.align	1
 307              		.global	HAL_I2C_MasterTxCpltCallback
 308              		.syntax unified
 309              		.thumb
 310              		.thumb_func
 312              	HAL_I2C_MasterTxCpltCallback:
 313              	.LFB136:
  34:Core/Src/i2c.c **** void HAL_I2C_MasterTxCpltCallback (I2C_HandleTypeDef * hi2c)
  35:Core/Src/i2c.c **** {
 314              		.loc 1 35 1 is_stmt 1 view -0
 315              		.cfi_startproc
 316              		@ Volatile: function does not return.
 317              		@ args = 0, pretend = 0, frame = 0
 318              		@ frame_needed = 0, uses_anonymous_args = 0
 319              		@ link register save eliminated.
 320              	.LVL30:
ARM GAS  /tmp/ccXuDrgd.s 			page 7


 321              	.L26:
  36:Core/Src/i2c.c ****   while(1);
 322              		.loc 1 36 3 discriminator 1 view .LVU48
 323              		.loc 1 36 11 discriminator 1 view .LVU49
 324              		.loc 1 36 8 discriminator 1 view .LVU50
 325 0000 FEE7     		b	.L26
 326              		.cfi_endproc
 327              	.LFE136:
 329              		.text
 330              	.Letext0:
 331              		.file 2 "/usr/share/gcc-arm-none-eabi-10.3-2021.10/arm-none-eabi/include/machine/_default_types.h"
 332              		.file 3 "/usr/share/gcc-arm-none-eabi-10.3-2021.10/arm-none-eabi/include/sys/_stdint.h"
 333              		.file 4 "Drivers/CMSIS/Device/ST/STM32F4xx/Include/stm32f401xc.h"
 334              		.file 5 "Drivers/STM32F4xx_HAL_Driver/Inc/stm32f4xx_hal_def.h"
 335              		.file 6 "Drivers/STM32F4xx_HAL_Driver/Inc/stm32f4xx_hal_dma.h"
 336              		.file 7 "Drivers/STM32F4xx_HAL_Driver/Inc/stm32f4xx_hal_i2c.h"
ARM GAS  /tmp/ccXuDrgd.s 			page 8


DEFINED SYMBOLS
                            *ABS*:0000000000000000 i2c.c
     /tmp/ccXuDrgd.s:20     .text.i2c_write:0000000000000000 $t
     /tmp/ccXuDrgd.s:26     .text.i2c_write:0000000000000000 i2c_write
     /tmp/ccXuDrgd.s:67     .text.i2c_write:000000000000001c $d
     /tmp/ccXuDrgd.s:72     .text.i2c_read:0000000000000000 $t
     /tmp/ccXuDrgd.s:78     .text.i2c_read:0000000000000000 i2c_read
     /tmp/ccXuDrgd.s:118    .text.i2c_read:000000000000001c $d
     /tmp/ccXuDrgd.s:123    .text.i2c_write_dma:0000000000000000 $t
     /tmp/ccXuDrgd.s:129    .text.i2c_write_dma:0000000000000000 i2c_write_dma
     /tmp/ccXuDrgd.s:161    .text.i2c_write_dma:0000000000000010 $d
     /tmp/ccXuDrgd.s:166    .text.i2c_read_dma:0000000000000000 $t
     /tmp/ccXuDrgd.s:172    .text.i2c_read_dma:0000000000000000 i2c_read_dma
     /tmp/ccXuDrgd.s:204    .text.i2c_read_dma:0000000000000010 $d
     /tmp/ccXuDrgd.s:209    .text.i2c_write_mem:0000000000000000 $t
     /tmp/ccXuDrgd.s:215    .text.i2c_write_mem:0000000000000000 i2c_write_mem
     /tmp/ccXuDrgd.s:260    .text.i2c_write_mem:0000000000000020 $d
     /tmp/ccXuDrgd.s:265    .text.i2c_device_acks:0000000000000000 $t
     /tmp/ccXuDrgd.s:271    .text.i2c_device_acks:0000000000000000 i2c_device_acks
     /tmp/ccXuDrgd.s:301    .text.i2c_device_acks:0000000000000014 $d
     /tmp/ccXuDrgd.s:306    .text.HAL_I2C_MasterTxCpltCallback:0000000000000000 $t
     /tmp/ccXuDrgd.s:312    .text.HAL_I2C_MasterTxCpltCallback:0000000000000000 HAL_I2C_MasterTxCpltCallback

UNDEFINED SYMBOLS
HAL_I2C_Master_Transmit
hi2c3
HAL_I2C_Master_Receive
HAL_I2C_Master_Transmit_DMA
HAL_I2C_Master_Receive_DMA
HAL_I2C_Mem_Write
HAL_I2C_IsDeviceReady
