ARM GAS  /tmp/cc3WkPK8.s 			page 1


   1              		.cpu cortex-m4
   2              		.arch armv7e-m
   3              		.fpu fpv4-sp-d16
   4              		.eabi_attribute 27, 1
   5              		.eabi_attribute 28, 1
   6              		.eabi_attribute 20, 1
   7              		.eabi_attribute 21, 1
   8              		.eabi_attribute 23, 3
   9              		.eabi_attribute 24, 1
  10              		.eabi_attribute 25, 1
  11              		.eabi_attribute 26, 1
  12              		.eabi_attribute 30, 1
  13              		.eabi_attribute 34, 1
  14              		.eabi_attribute 18, 4
  15              		.file	"i2c.c"
  16              		.text
  17              	.Ltext0:
  18              		.cfi_sections	.debug_frame
  19              		.section	.text.i2c_write,"ax",%progbits
  20              		.align	1
  21              		.global	i2c_write
  22              		.syntax unified
  23              		.thumb
  24              		.thumb_func
  26              	i2c_write:
  27              	.LVL0:
  28              	.LFB130:
  29              		.file 1 "Core/Src/i2c.c"
   1:Core/Src/i2c.c **** #include "i2c.h"
   2:Core/Src/i2c.c **** #include "main.h"
   3:Core/Src/i2c.c **** 
   4:Core/Src/i2c.c **** extern I2C_HandleTypeDef hi2c3;
   5:Core/Src/i2c.c **** extern DMA_HandleTypeDef hdma_i2c3_rx;
   6:Core/Src/i2c.c **** extern DMA_HandleTypeDef hdma_i2c3_tx;
   7:Core/Src/i2c.c **** 
   8:Core/Src/i2c.c **** uint8_t i2c_write(uint8_t addr, uint8_t* buf, uint32_t len)
   9:Core/Src/i2c.c **** {
  30              		.loc 1 9 1 view -0
  31              		.cfi_startproc
  32              		@ args = 0, pretend = 0, frame = 0
  33              		@ frame_needed = 0, uses_anonymous_args = 0
  34              		.loc 1 9 1 is_stmt 0 view .LVU1
  35 0000 00B5     		push	{lr}
  36              		.cfi_def_cfa_offset 4
  37              		.cfi_offset 14, -4
  38 0002 83B0     		sub	sp, sp, #12
  39              		.cfi_def_cfa_offset 16
  10:Core/Src/i2c.c ****     return HAL_I2C_Master_Transmit(&hi2c3, addr,buf, len, HAL_MAX_DELAY);
  40              		.loc 1 10 5 is_stmt 1 view .LVU2
  41              		.loc 1 10 12 is_stmt 0 view .LVU3
  42 0004 4FF0FF33 		mov	r3, #-1
  43 0008 0093     		str	r3, [sp]
  44 000a 93B2     		uxth	r3, r2
  45 000c 0A46     		mov	r2, r1
  46              	.LVL1:
  47              		.loc 1 10 12 view .LVU4
  48 000e 0146     		mov	r1, r0
ARM GAS  /tmp/cc3WkPK8.s 			page 2


  49              	.LVL2:
  50              		.loc 1 10 12 view .LVU5
  51 0010 0248     		ldr	r0, .L3
  52              	.LVL3:
  53              		.loc 1 10 12 view .LVU6
  54 0012 FFF7FEFF 		bl	HAL_I2C_Master_Transmit
  55              	.LVL4:
  11:Core/Src/i2c.c **** }
  56              		.loc 1 11 1 view .LVU7
  57 0016 03B0     		add	sp, sp, #12
  58              		.cfi_def_cfa_offset 4
  59              		@ sp needed
  60 0018 5DF804FB 		ldr	pc, [sp], #4
  61              	.L4:
  62              		.align	2
  63              	.L3:
  64 001c 00000000 		.word	hi2c3
  65              		.cfi_endproc
  66              	.LFE130:
  68              		.section	.text.i2c_read,"ax",%progbits
  69              		.align	1
  70              		.global	i2c_read
  71              		.syntax unified
  72              		.thumb
  73              		.thumb_func
  75              	i2c_read:
  76              	.LVL5:
  77              	.LFB131:
  12:Core/Src/i2c.c **** 
  13:Core/Src/i2c.c **** uint8_t i2c_read(uint8_t addr, uint8_t* buf, uint32_t len)
  14:Core/Src/i2c.c **** {
  78              		.loc 1 14 1 is_stmt 1 view -0
  79              		.cfi_startproc
  80              		@ args = 0, pretend = 0, frame = 0
  81              		@ frame_needed = 0, uses_anonymous_args = 0
  82              		.loc 1 14 1 is_stmt 0 view .LVU9
  83 0000 00B5     		push	{lr}
  84              		.cfi_def_cfa_offset 4
  85              		.cfi_offset 14, -4
  86 0002 83B0     		sub	sp, sp, #12
  87              		.cfi_def_cfa_offset 16
  15:Core/Src/i2c.c ****     return HAL_I2C_Master_Receive(&hi2c3, addr, buf, len, HAL_MAX_DELAY);
  88              		.loc 1 15 5 is_stmt 1 view .LVU10
  89              		.loc 1 15 12 is_stmt 0 view .LVU11
  90 0004 4FF0FF33 		mov	r3, #-1
  91 0008 0093     		str	r3, [sp]
  92 000a 93B2     		uxth	r3, r2
  93 000c 0A46     		mov	r2, r1
  94              	.LVL6:
  95              		.loc 1 15 12 view .LVU12
  96 000e 0146     		mov	r1, r0
  97              	.LVL7:
  98              		.loc 1 15 12 view .LVU13
  99 0010 0248     		ldr	r0, .L7
 100              	.LVL8:
 101              		.loc 1 15 12 view .LVU14
 102 0012 FFF7FEFF 		bl	HAL_I2C_Master_Receive
ARM GAS  /tmp/cc3WkPK8.s 			page 3


 103              	.LVL9:
  16:Core/Src/i2c.c **** }
 104              		.loc 1 16 1 view .LVU15
 105 0016 03B0     		add	sp, sp, #12
 106              		.cfi_def_cfa_offset 4
 107              		@ sp needed
 108 0018 5DF804FB 		ldr	pc, [sp], #4
 109              	.L8:
 110              		.align	2
 111              	.L7:
 112 001c 00000000 		.word	hi2c3
 113              		.cfi_endproc
 114              	.LFE131:
 116              		.section	.text.i2c_write_dma,"ax",%progbits
 117              		.align	1
 118              		.global	i2c_write_dma
 119              		.syntax unified
 120              		.thumb
 121              		.thumb_func
 123              	i2c_write_dma:
 124              	.LVL10:
 125              	.LFB132:
  17:Core/Src/i2c.c **** uint8_t i2c_write_dma(uint8_t addr, uint8_t* buf, uint32_t len)
  18:Core/Src/i2c.c **** {
 126              		.loc 1 18 1 is_stmt 1 view -0
 127              		.cfi_startproc
 128              		@ args = 0, pretend = 0, frame = 0
 129              		@ frame_needed = 0, uses_anonymous_args = 0
 130              		.loc 1 18 1 is_stmt 0 view .LVU17
 131 0000 08B5     		push	{r3, lr}
 132              		.cfi_def_cfa_offset 8
 133              		.cfi_offset 3, -8
 134              		.cfi_offset 14, -4
  19:Core/Src/i2c.c ****     return HAL_I2C_Master_Transmit_DMA(&hi2c3, addr, buf, len);
 135              		.loc 1 19 5 is_stmt 1 view .LVU18
 136              		.loc 1 19 12 is_stmt 0 view .LVU19
 137 0002 93B2     		uxth	r3, r2
 138 0004 0A46     		mov	r2, r1
 139              	.LVL11:
 140              		.loc 1 19 12 view .LVU20
 141 0006 0146     		mov	r1, r0
 142              	.LVL12:
 143              		.loc 1 19 12 view .LVU21
 144 0008 0148     		ldr	r0, .L11
 145              	.LVL13:
 146              		.loc 1 19 12 view .LVU22
 147 000a FFF7FEFF 		bl	HAL_I2C_Master_Transmit_DMA
 148              	.LVL14:
  20:Core/Src/i2c.c **** }
 149              		.loc 1 20 1 view .LVU23
 150 000e 08BD     		pop	{r3, pc}
 151              	.L12:
 152              		.align	2
 153              	.L11:
 154 0010 00000000 		.word	hi2c3
 155              		.cfi_endproc
 156              	.LFE132:
ARM GAS  /tmp/cc3WkPK8.s 			page 4


 158              		.section	.text.i2c_read_dma,"ax",%progbits
 159              		.align	1
 160              		.global	i2c_read_dma
 161              		.syntax unified
 162              		.thumb
 163              		.thumb_func
 165              	i2c_read_dma:
 166              	.LVL15:
 167              	.LFB133:
  21:Core/Src/i2c.c **** uint8_t i2c_read_dma(uint8_t addr, uint8_t* buf, uint32_t len)
  22:Core/Src/i2c.c **** {
 168              		.loc 1 22 1 is_stmt 1 view -0
 169              		.cfi_startproc
 170              		@ args = 0, pretend = 0, frame = 0
 171              		@ frame_needed = 0, uses_anonymous_args = 0
 172              		.loc 1 22 1 is_stmt 0 view .LVU25
 173 0000 08B5     		push	{r3, lr}
 174              		.cfi_def_cfa_offset 8
 175              		.cfi_offset 3, -8
 176              		.cfi_offset 14, -4
  23:Core/Src/i2c.c ****     return HAL_I2C_Master_Receive_DMA(&hi2c3, addr, buf, len);
 177              		.loc 1 23 5 is_stmt 1 view .LVU26
 178              		.loc 1 23 12 is_stmt 0 view .LVU27
 179 0002 93B2     		uxth	r3, r2
 180 0004 0A46     		mov	r2, r1
 181              	.LVL16:
 182              		.loc 1 23 12 view .LVU28
 183 0006 0146     		mov	r1, r0
 184              	.LVL17:
 185              		.loc 1 23 12 view .LVU29
 186 0008 0148     		ldr	r0, .L15
 187              	.LVL18:
 188              		.loc 1 23 12 view .LVU30
 189 000a FFF7FEFF 		bl	HAL_I2C_Master_Receive_DMA
 190              	.LVL19:
  24:Core/Src/i2c.c **** }
 191              		.loc 1 24 1 view .LVU31
 192 000e 08BD     		pop	{r3, pc}
 193              	.L16:
 194              		.align	2
 195              	.L15:
 196 0010 00000000 		.word	hi2c3
 197              		.cfi_endproc
 198              	.LFE133:
 200              		.section	.text.i2c_device_acks,"ax",%progbits
 201              		.align	1
 202              		.global	i2c_device_acks
 203              		.syntax unified
 204              		.thumb
 205              		.thumb_func
 207              	i2c_device_acks:
 208              	.LVL20:
 209              	.LFB134:
  25:Core/Src/i2c.c **** 
  26:Core/Src/i2c.c **** uint8_t i2c_device_acks(uint8_t addr, uint32_t attempts)
  27:Core/Src/i2c.c **** {
 210              		.loc 1 27 1 is_stmt 1 view -0
ARM GAS  /tmp/cc3WkPK8.s 			page 5


 211              		.cfi_startproc
 212              		@ args = 0, pretend = 0, frame = 0
 213              		@ frame_needed = 0, uses_anonymous_args = 0
 214              		.loc 1 27 1 is_stmt 0 view .LVU33
 215 0000 08B5     		push	{r3, lr}
 216              		.cfi_def_cfa_offset 8
 217              		.cfi_offset 3, -8
 218              		.cfi_offset 14, -4
 219 0002 0A46     		mov	r2, r1
  28:Core/Src/i2c.c ****     return HAL_I2C_IsDeviceReady(&hi2c3, addr, attempts, HAL_MAX_DELAY);
 220              		.loc 1 28 5 is_stmt 1 view .LVU34
 221              		.loc 1 28 12 is_stmt 0 view .LVU35
 222 0004 4FF0FF33 		mov	r3, #-1
 223 0008 0146     		mov	r1, r0
 224              	.LVL21:
 225              		.loc 1 28 12 view .LVU36
 226 000a 0248     		ldr	r0, .L19
 227              	.LVL22:
 228              		.loc 1 28 12 view .LVU37
 229 000c FFF7FEFF 		bl	HAL_I2C_IsDeviceReady
 230              	.LVL23:
  29:Core/Src/i2c.c **** }
 231              		.loc 1 29 1 view .LVU38
 232 0010 08BD     		pop	{r3, pc}
 233              	.L20:
 234 0012 00BF     		.align	2
 235              	.L19:
 236 0014 00000000 		.word	hi2c3
 237              		.cfi_endproc
 238              	.LFE134:
 240              		.section	.text.HAL_I2C_MasterTxCpltCallback,"ax",%progbits
 241              		.align	1
 242              		.global	HAL_I2C_MasterTxCpltCallback
 243              		.syntax unified
 244              		.thumb
 245              		.thumb_func
 247              	HAL_I2C_MasterTxCpltCallback:
 248              	.LFB135:
  30:Core/Src/i2c.c **** void HAL_I2C_MasterTxCpltCallback (I2C_HandleTypeDef * hi2c)
  31:Core/Src/i2c.c **** {
 249              		.loc 1 31 1 is_stmt 1 view -0
 250              		.cfi_startproc
 251              		@ Volatile: function does not return.
 252              		@ args = 0, pretend = 0, frame = 0
 253              		@ frame_needed = 0, uses_anonymous_args = 0
 254              		@ link register save eliminated.
 255              	.LVL24:
 256              	.L22:
  32:Core/Src/i2c.c ****   while(1);
 257              		.loc 1 32 3 discriminator 1 view .LVU40
 258              		.loc 1 32 11 discriminator 1 view .LVU41
 259              		.loc 1 32 8 discriminator 1 view .LVU42
 260 0000 FEE7     		b	.L22
 261              		.cfi_endproc
 262              	.LFE135:
 264              		.text
 265              	.Letext0:
ARM GAS  /tmp/cc3WkPK8.s 			page 6


 266              		.file 2 "/usr/share/gcc-arm-none-eabi-10.3-2021.10/arm-none-eabi/include/machine/_default_types.h"
 267              		.file 3 "/usr/share/gcc-arm-none-eabi-10.3-2021.10/arm-none-eabi/include/sys/_stdint.h"
 268              		.file 4 "Drivers/CMSIS/Device/ST/STM32F4xx/Include/stm32f401xc.h"
 269              		.file 5 "Drivers/STM32F4xx_HAL_Driver/Inc/stm32f4xx_hal_def.h"
 270              		.file 6 "Drivers/STM32F4xx_HAL_Driver/Inc/stm32f4xx_hal_dma.h"
 271              		.file 7 "Drivers/STM32F4xx_HAL_Driver/Inc/stm32f4xx_hal_i2c.h"
ARM GAS  /tmp/cc3WkPK8.s 			page 7

