ARM GAS  /tmp/cckJJ7Hn.s 			page 1


   1              		.cpu cortex-m4
   2              		.arch armv7e-m
   3              		.fpu fpv4-sp-d16
   4              		.eabi_attribute 27, 1
   5              		.eabi_attribute 28, 1
   6              		.eabi_attribute 20, 1
   7              		.eabi_attribute 21, 1
   8              		.eabi_attribute 23, 3
   9              		.eabi_attribute 24, 1
  10              		.eabi_attribute 25, 1
  11              		.eabi_attribute 26, 1
  12              		.eabi_attribute 30, 1
  13              		.eabi_attribute 34, 1
  14              		.eabi_attribute 18, 4
  15              		.file	"stm32f4xx_hal_rtc_ex.c"
  16              		.text
  17              	.Ltext0:
  18              		.cfi_sections	.debug_frame
  19              		.section	.text.HAL_RTCEx_SetTimeStamp,"ax",%progbits
  20              		.align	1
  21              		.global	HAL_RTCEx_SetTimeStamp
  22              		.syntax unified
  23              		.thumb
  24              		.thumb_func
  26              	HAL_RTCEx_SetTimeStamp:
  27              	.LVL0:
  28              	.LFB130:
  29              		.file 1 "Drivers/STM32F4xx_HAL_Driver/Src/stm32f4xx_hal_rtc_ex.c"
   1:Drivers/STM32F4xx_HAL_Driver/Src/stm32f4xx_hal_rtc_ex.c **** /**
   2:Drivers/STM32F4xx_HAL_Driver/Src/stm32f4xx_hal_rtc_ex.c ****   ******************************************************************************
   3:Drivers/STM32F4xx_HAL_Driver/Src/stm32f4xx_hal_rtc_ex.c ****   * @file    stm32f4xx_hal_rtc_ex.c
   4:Drivers/STM32F4xx_HAL_Driver/Src/stm32f4xx_hal_rtc_ex.c ****   * @author  MCD Application Team
   5:Drivers/STM32F4xx_HAL_Driver/Src/stm32f4xx_hal_rtc_ex.c ****   * @brief   Extended RTC HAL module driver.
   6:Drivers/STM32F4xx_HAL_Driver/Src/stm32f4xx_hal_rtc_ex.c ****   *          This file provides firmware functions to manage the following
   7:Drivers/STM32F4xx_HAL_Driver/Src/stm32f4xx_hal_rtc_ex.c ****   *          functionalities of the Real-Time Clock (RTC) Extended peripheral:
   8:Drivers/STM32F4xx_HAL_Driver/Src/stm32f4xx_hal_rtc_ex.c ****   *           + RTC Timestamp functions
   9:Drivers/STM32F4xx_HAL_Driver/Src/stm32f4xx_hal_rtc_ex.c ****   *           + RTC Tamper functions
  10:Drivers/STM32F4xx_HAL_Driver/Src/stm32f4xx_hal_rtc_ex.c ****   *           + RTC Wakeup functions
  11:Drivers/STM32F4xx_HAL_Driver/Src/stm32f4xx_hal_rtc_ex.c ****   *           + Extended Control functions
  12:Drivers/STM32F4xx_HAL_Driver/Src/stm32f4xx_hal_rtc_ex.c ****   *           + Extended RTC features functions
  13:Drivers/STM32F4xx_HAL_Driver/Src/stm32f4xx_hal_rtc_ex.c ****   *
  14:Drivers/STM32F4xx_HAL_Driver/Src/stm32f4xx_hal_rtc_ex.c ****   ******************************************************************************
  15:Drivers/STM32F4xx_HAL_Driver/Src/stm32f4xx_hal_rtc_ex.c ****   * @attention
  16:Drivers/STM32F4xx_HAL_Driver/Src/stm32f4xx_hal_rtc_ex.c ****   *
  17:Drivers/STM32F4xx_HAL_Driver/Src/stm32f4xx_hal_rtc_ex.c ****   * Copyright (c) 2017 STMicroelectronics.
  18:Drivers/STM32F4xx_HAL_Driver/Src/stm32f4xx_hal_rtc_ex.c ****   * All rights reserved.
  19:Drivers/STM32F4xx_HAL_Driver/Src/stm32f4xx_hal_rtc_ex.c ****   *
  20:Drivers/STM32F4xx_HAL_Driver/Src/stm32f4xx_hal_rtc_ex.c ****   * This software is licensed under terms that can be found in the LICENSE file
  21:Drivers/STM32F4xx_HAL_Driver/Src/stm32f4xx_hal_rtc_ex.c ****   * in the root directory of this software component.
  22:Drivers/STM32F4xx_HAL_Driver/Src/stm32f4xx_hal_rtc_ex.c ****   * If no LICENSE file comes with this software, it is provided AS-IS.
  23:Drivers/STM32F4xx_HAL_Driver/Src/stm32f4xx_hal_rtc_ex.c ****   *
  24:Drivers/STM32F4xx_HAL_Driver/Src/stm32f4xx_hal_rtc_ex.c ****   ******************************************************************************
  25:Drivers/STM32F4xx_HAL_Driver/Src/stm32f4xx_hal_rtc_ex.c ****   @verbatim
  26:Drivers/STM32F4xx_HAL_Driver/Src/stm32f4xx_hal_rtc_ex.c ****   ==============================================================================
  27:Drivers/STM32F4xx_HAL_Driver/Src/stm32f4xx_hal_rtc_ex.c ****                         ##### How to use this driver #####
  28:Drivers/STM32F4xx_HAL_Driver/Src/stm32f4xx_hal_rtc_ex.c ****   ==============================================================================
  29:Drivers/STM32F4xx_HAL_Driver/Src/stm32f4xx_hal_rtc_ex.c ****   [..]
ARM GAS  /tmp/cckJJ7Hn.s 			page 2


  30:Drivers/STM32F4xx_HAL_Driver/Src/stm32f4xx_hal_rtc_ex.c ****     (+) Enable the RTC domain access.
  31:Drivers/STM32F4xx_HAL_Driver/Src/stm32f4xx_hal_rtc_ex.c ****     (+) Configure the RTC Prescaler (Asynchronous and Synchronous) and RTC hour
  32:Drivers/STM32F4xx_HAL_Driver/Src/stm32f4xx_hal_rtc_ex.c ****         format using the HAL_RTC_Init() function.
  33:Drivers/STM32F4xx_HAL_Driver/Src/stm32f4xx_hal_rtc_ex.c **** 
  34:Drivers/STM32F4xx_HAL_Driver/Src/stm32f4xx_hal_rtc_ex.c ****   *** RTC Wakeup configuration ***
  35:Drivers/STM32F4xx_HAL_Driver/Src/stm32f4xx_hal_rtc_ex.c ****   ================================
  36:Drivers/STM32F4xx_HAL_Driver/Src/stm32f4xx_hal_rtc_ex.c ****   [..]
  37:Drivers/STM32F4xx_HAL_Driver/Src/stm32f4xx_hal_rtc_ex.c ****     (+) To configure the RTC Wakeup Clock source and Counter use the
  38:Drivers/STM32F4xx_HAL_Driver/Src/stm32f4xx_hal_rtc_ex.c ****         HAL_RTCEx_SetWakeUpTimer() function.
  39:Drivers/STM32F4xx_HAL_Driver/Src/stm32f4xx_hal_rtc_ex.c ****         You can also configure the RTC Wakeup timer in interrupt mode using the
  40:Drivers/STM32F4xx_HAL_Driver/Src/stm32f4xx_hal_rtc_ex.c ****         HAL_RTCEx_SetWakeUpTimer_IT() function.
  41:Drivers/STM32F4xx_HAL_Driver/Src/stm32f4xx_hal_rtc_ex.c ****     (+) To read the RTC Wakeup Counter register, use the HAL_RTCEx_GetWakeUpTimer()
  42:Drivers/STM32F4xx_HAL_Driver/Src/stm32f4xx_hal_rtc_ex.c ****         function.
  43:Drivers/STM32F4xx_HAL_Driver/Src/stm32f4xx_hal_rtc_ex.c **** 
  44:Drivers/STM32F4xx_HAL_Driver/Src/stm32f4xx_hal_rtc_ex.c ****   *** Timestamp configuration ***
  45:Drivers/STM32F4xx_HAL_Driver/Src/stm32f4xx_hal_rtc_ex.c ****   ===============================
  46:Drivers/STM32F4xx_HAL_Driver/Src/stm32f4xx_hal_rtc_ex.c ****   [..]
  47:Drivers/STM32F4xx_HAL_Driver/Src/stm32f4xx_hal_rtc_ex.c ****     (+) To configure the RTC Timestamp use the HAL_RTCEx_SetTimeStamp() function.
  48:Drivers/STM32F4xx_HAL_Driver/Src/stm32f4xx_hal_rtc_ex.c ****         You can also configure the RTC Timestamp with interrupt mode using the
  49:Drivers/STM32F4xx_HAL_Driver/Src/stm32f4xx_hal_rtc_ex.c ****         HAL_RTCEx_SetTimeStamp_IT() function.
  50:Drivers/STM32F4xx_HAL_Driver/Src/stm32f4xx_hal_rtc_ex.c ****     (+) To read the RTC Timestamp Time and Date register, use the
  51:Drivers/STM32F4xx_HAL_Driver/Src/stm32f4xx_hal_rtc_ex.c ****         HAL_RTCEx_GetTimeStamp() function.
  52:Drivers/STM32F4xx_HAL_Driver/Src/stm32f4xx_hal_rtc_ex.c ****     (+) The Timestamp alternate function can be mapped either to RTC_AF1 (PC13)
  53:Drivers/STM32F4xx_HAL_Driver/Src/stm32f4xx_hal_rtc_ex.c ****         or RTC_AF2 (PI8) depending on the value of TSINSEL bit in RTC_TAFCR
  54:Drivers/STM32F4xx_HAL_Driver/Src/stm32f4xx_hal_rtc_ex.c ****         register.
  55:Drivers/STM32F4xx_HAL_Driver/Src/stm32f4xx_hal_rtc_ex.c ****         For STM32F446xx devices RTC_AF2 corresponds to pin PA0 and not to pin PI8.
  56:Drivers/STM32F4xx_HAL_Driver/Src/stm32f4xx_hal_rtc_ex.c ****         The corresponding pin is also selected by HAL_RTCEx_SetTimeStamp()
  57:Drivers/STM32F4xx_HAL_Driver/Src/stm32f4xx_hal_rtc_ex.c ****         or HAL_RTCEx_SetTimeStamp_IT() functions.
  58:Drivers/STM32F4xx_HAL_Driver/Src/stm32f4xx_hal_rtc_ex.c **** 
  59:Drivers/STM32F4xx_HAL_Driver/Src/stm32f4xx_hal_rtc_ex.c ****   *** Tamper configuration ***
  60:Drivers/STM32F4xx_HAL_Driver/Src/stm32f4xx_hal_rtc_ex.c ****   ============================
  61:Drivers/STM32F4xx_HAL_Driver/Src/stm32f4xx_hal_rtc_ex.c ****   [..]
  62:Drivers/STM32F4xx_HAL_Driver/Src/stm32f4xx_hal_rtc_ex.c ****     (+) To Enable the RTC Tamper and configure the Tamper filter count, trigger
  63:Drivers/STM32F4xx_HAL_Driver/Src/stm32f4xx_hal_rtc_ex.c ****         Edge or Level according to the Tamper filter value (if equal to 0 Edge
  64:Drivers/STM32F4xx_HAL_Driver/Src/stm32f4xx_hal_rtc_ex.c ****         else Level), sampling frequency, precharge or discharge and Pull-UP use
  65:Drivers/STM32F4xx_HAL_Driver/Src/stm32f4xx_hal_rtc_ex.c ****         the HAL_RTCEx_SetTamper() function.
  66:Drivers/STM32F4xx_HAL_Driver/Src/stm32f4xx_hal_rtc_ex.c ****         You can configure RTC Tamper in interrupt mode using HAL_RTCEx_SetTamper_IT()
  67:Drivers/STM32F4xx_HAL_Driver/Src/stm32f4xx_hal_rtc_ex.c ****         function.
  68:Drivers/STM32F4xx_HAL_Driver/Src/stm32f4xx_hal_rtc_ex.c ****     (+) The TAMPER1 alternate function can be mapped either to RTC_AF1 (PC13)
  69:Drivers/STM32F4xx_HAL_Driver/Src/stm32f4xx_hal_rtc_ex.c ****         or RTC_AF2 (PI8) depending on the value of TAMP1INSEL bit in RTC_TAFCR
  70:Drivers/STM32F4xx_HAL_Driver/Src/stm32f4xx_hal_rtc_ex.c ****         register.
  71:Drivers/STM32F4xx_HAL_Driver/Src/stm32f4xx_hal_rtc_ex.c ****         The corresponding pin is also selected by HAL_RTCEx_SetTamper()
  72:Drivers/STM32F4xx_HAL_Driver/Src/stm32f4xx_hal_rtc_ex.c ****         or HAL_RTCEx_SetTamper_IT() functions.
  73:Drivers/STM32F4xx_HAL_Driver/Src/stm32f4xx_hal_rtc_ex.c ****     (+) The TAMPER2 alternate function is mapped to RTC_AF2 (PI8).
  74:Drivers/STM32F4xx_HAL_Driver/Src/stm32f4xx_hal_rtc_ex.c ****         For STM32F446xx devices RTC_AF2 corresponds to pin PA0 and not to pin PI8.
  75:Drivers/STM32F4xx_HAL_Driver/Src/stm32f4xx_hal_rtc_ex.c **** 
  76:Drivers/STM32F4xx_HAL_Driver/Src/stm32f4xx_hal_rtc_ex.c ****   *** Backup Data Registers configuration ***
  77:Drivers/STM32F4xx_HAL_Driver/Src/stm32f4xx_hal_rtc_ex.c ****   ===========================================
  78:Drivers/STM32F4xx_HAL_Driver/Src/stm32f4xx_hal_rtc_ex.c ****   [..]
  79:Drivers/STM32F4xx_HAL_Driver/Src/stm32f4xx_hal_rtc_ex.c ****     (+) To write to the RTC Backup Data registers, use the HAL_RTCEx_BKUPWrite()
  80:Drivers/STM32F4xx_HAL_Driver/Src/stm32f4xx_hal_rtc_ex.c ****         function.
  81:Drivers/STM32F4xx_HAL_Driver/Src/stm32f4xx_hal_rtc_ex.c ****     (+) To read the RTC Backup Data registers, use the HAL_RTCEx_BKUPRead()
  82:Drivers/STM32F4xx_HAL_Driver/Src/stm32f4xx_hal_rtc_ex.c ****         function.
  83:Drivers/STM32F4xx_HAL_Driver/Src/stm32f4xx_hal_rtc_ex.c **** 
  84:Drivers/STM32F4xx_HAL_Driver/Src/stm32f4xx_hal_rtc_ex.c ****   *** Coarse Digital Calibration configuration ***
  85:Drivers/STM32F4xx_HAL_Driver/Src/stm32f4xx_hal_rtc_ex.c ****   ================================================
  86:Drivers/STM32F4xx_HAL_Driver/Src/stm32f4xx_hal_rtc_ex.c ****   [..]
ARM GAS  /tmp/cckJJ7Hn.s 			page 3


  87:Drivers/STM32F4xx_HAL_Driver/Src/stm32f4xx_hal_rtc_ex.c ****     (+) The Coarse Digital Calibration can be used to compensate crystal inaccuracy
  88:Drivers/STM32F4xx_HAL_Driver/Src/stm32f4xx_hal_rtc_ex.c ****         by setting the DCS bit in RTC_CALIBR register.
  89:Drivers/STM32F4xx_HAL_Driver/Src/stm32f4xx_hal_rtc_ex.c ****     (+) When positive calibration is enabled (DCS = ‘0’), 2 asynchronous prescaler
  90:Drivers/STM32F4xx_HAL_Driver/Src/stm32f4xx_hal_rtc_ex.c ****         clock cycles are added every minute during 2xDC minutes.
  91:Drivers/STM32F4xx_HAL_Driver/Src/stm32f4xx_hal_rtc_ex.c ****         This causes the calendar to be updated sooner, thereby adjusting the
  92:Drivers/STM32F4xx_HAL_Driver/Src/stm32f4xx_hal_rtc_ex.c ****         effective RTC frequency to be a bit higher.
  93:Drivers/STM32F4xx_HAL_Driver/Src/stm32f4xx_hal_rtc_ex.c ****     (+) When negative calibration is enabled (DCS = ‘1’), 1 asynchronous prescaler
  94:Drivers/STM32F4xx_HAL_Driver/Src/stm32f4xx_hal_rtc_ex.c ****         clock cycle is removed every minute during 2xDC minutes.
  95:Drivers/STM32F4xx_HAL_Driver/Src/stm32f4xx_hal_rtc_ex.c ****         This causes the calendar to be updated later, thereby adjusting the
  96:Drivers/STM32F4xx_HAL_Driver/Src/stm32f4xx_hal_rtc_ex.c ****         effective RTC frequency to be a bit lower.
  97:Drivers/STM32F4xx_HAL_Driver/Src/stm32f4xx_hal_rtc_ex.c ****     (+) DC is configured through bits DC[4:0] of RTC_CALIBR register. This number
  98:Drivers/STM32F4xx_HAL_Driver/Src/stm32f4xx_hal_rtc_ex.c ****         ranges from 0 to 31 corresponding to a time interval (2xDC) ranging from
  99:Drivers/STM32F4xx_HAL_Driver/Src/stm32f4xx_hal_rtc_ex.c ****         0 to 62.
 100:Drivers/STM32F4xx_HAL_Driver/Src/stm32f4xx_hal_rtc_ex.c ****     (+) In order to measure the clock deviation, a 512 Hz clock is output for
 101:Drivers/STM32F4xx_HAL_Driver/Src/stm32f4xx_hal_rtc_ex.c ****         calibration.
 102:Drivers/STM32F4xx_HAL_Driver/Src/stm32f4xx_hal_rtc_ex.c ****     (+) The RTC Coarse Digital Calibration value and sign can be calibrated using
 103:Drivers/STM32F4xx_HAL_Driver/Src/stm32f4xx_hal_rtc_ex.c ****         the HAL_RTCEx_SetCoarseCalib() function.
 104:Drivers/STM32F4xx_HAL_Driver/Src/stm32f4xx_hal_rtc_ex.c **** 
 105:Drivers/STM32F4xx_HAL_Driver/Src/stm32f4xx_hal_rtc_ex.c ****   *** Smooth Digital Calibration configuration ***
 106:Drivers/STM32F4xx_HAL_Driver/Src/stm32f4xx_hal_rtc_ex.c ****   ================================================
 107:Drivers/STM32F4xx_HAL_Driver/Src/stm32f4xx_hal_rtc_ex.c ****   [..]
 108:Drivers/STM32F4xx_HAL_Driver/Src/stm32f4xx_hal_rtc_ex.c ****     (+) RTC frequency can be digitally calibrated with a resolution of about
 109:Drivers/STM32F4xx_HAL_Driver/Src/stm32f4xx_hal_rtc_ex.c ****         0.954 ppm with a range from -487.1 ppm to +488.5 ppm.
 110:Drivers/STM32F4xx_HAL_Driver/Src/stm32f4xx_hal_rtc_ex.c ****         The correction of the frequency is performed using a series of small
 111:Drivers/STM32F4xx_HAL_Driver/Src/stm32f4xx_hal_rtc_ex.c ****         adjustments (adding and/or subtracting individual RTCCLK pulses).
 112:Drivers/STM32F4xx_HAL_Driver/Src/stm32f4xx_hal_rtc_ex.c ****     (+) The smooth digital calibration is performed during a cycle of about 2^20
 113:Drivers/STM32F4xx_HAL_Driver/Src/stm32f4xx_hal_rtc_ex.c ****         RTCCLK pulses (or 32 seconds) when the input frequency is 32,768 Hz.
 114:Drivers/STM32F4xx_HAL_Driver/Src/stm32f4xx_hal_rtc_ex.c ****         This cycle is maintained by a 20-bit counter clocked by RTCCLK.
 115:Drivers/STM32F4xx_HAL_Driver/Src/stm32f4xx_hal_rtc_ex.c ****     (+) The smooth calibration register (RTC_CALR) specifies the number of RTCCLK
 116:Drivers/STM32F4xx_HAL_Driver/Src/stm32f4xx_hal_rtc_ex.c ****         clock cycles to be masked during the 32-second cycle.
 117:Drivers/STM32F4xx_HAL_Driver/Src/stm32f4xx_hal_rtc_ex.c ****     (+) The RTC Smooth Digital Calibration value and the corresponding calibration
 118:Drivers/STM32F4xx_HAL_Driver/Src/stm32f4xx_hal_rtc_ex.c ****         cycle period (32s, 16s, or 8s) can be calibrated using the
 119:Drivers/STM32F4xx_HAL_Driver/Src/stm32f4xx_hal_rtc_ex.c ****         HAL_RTCEx_SetSmoothCalib() function.
 120:Drivers/STM32F4xx_HAL_Driver/Src/stm32f4xx_hal_rtc_ex.c **** 
 121:Drivers/STM32F4xx_HAL_Driver/Src/stm32f4xx_hal_rtc_ex.c ****   @endverbatim
 122:Drivers/STM32F4xx_HAL_Driver/Src/stm32f4xx_hal_rtc_ex.c ****   ******************************************************************************
 123:Drivers/STM32F4xx_HAL_Driver/Src/stm32f4xx_hal_rtc_ex.c ****   */
 124:Drivers/STM32F4xx_HAL_Driver/Src/stm32f4xx_hal_rtc_ex.c **** 
 125:Drivers/STM32F4xx_HAL_Driver/Src/stm32f4xx_hal_rtc_ex.c **** /* Includes ------------------------------------------------------------------*/
 126:Drivers/STM32F4xx_HAL_Driver/Src/stm32f4xx_hal_rtc_ex.c **** #include "stm32f4xx_hal.h"
 127:Drivers/STM32F4xx_HAL_Driver/Src/stm32f4xx_hal_rtc_ex.c **** 
 128:Drivers/STM32F4xx_HAL_Driver/Src/stm32f4xx_hal_rtc_ex.c **** /** @addtogroup STM32F4xx_HAL_Driver
 129:Drivers/STM32F4xx_HAL_Driver/Src/stm32f4xx_hal_rtc_ex.c ****   * @{
 130:Drivers/STM32F4xx_HAL_Driver/Src/stm32f4xx_hal_rtc_ex.c ****   */
 131:Drivers/STM32F4xx_HAL_Driver/Src/stm32f4xx_hal_rtc_ex.c **** 
 132:Drivers/STM32F4xx_HAL_Driver/Src/stm32f4xx_hal_rtc_ex.c **** /** @defgroup RTCEx RTCEx
 133:Drivers/STM32F4xx_HAL_Driver/Src/stm32f4xx_hal_rtc_ex.c ****   * @brief    RTC Extended HAL module driver
 134:Drivers/STM32F4xx_HAL_Driver/Src/stm32f4xx_hal_rtc_ex.c ****   * @{
 135:Drivers/STM32F4xx_HAL_Driver/Src/stm32f4xx_hal_rtc_ex.c ****   */
 136:Drivers/STM32F4xx_HAL_Driver/Src/stm32f4xx_hal_rtc_ex.c **** 
 137:Drivers/STM32F4xx_HAL_Driver/Src/stm32f4xx_hal_rtc_ex.c **** #ifdef HAL_RTC_MODULE_ENABLED
 138:Drivers/STM32F4xx_HAL_Driver/Src/stm32f4xx_hal_rtc_ex.c **** 
 139:Drivers/STM32F4xx_HAL_Driver/Src/stm32f4xx_hal_rtc_ex.c **** /* Private typedef -----------------------------------------------------------*/
 140:Drivers/STM32F4xx_HAL_Driver/Src/stm32f4xx_hal_rtc_ex.c **** /* Private define ------------------------------------------------------------*/
 141:Drivers/STM32F4xx_HAL_Driver/Src/stm32f4xx_hal_rtc_ex.c **** /* Private macro -------------------------------------------------------------*/
 142:Drivers/STM32F4xx_HAL_Driver/Src/stm32f4xx_hal_rtc_ex.c **** /* Private variables ---------------------------------------------------------*/
 143:Drivers/STM32F4xx_HAL_Driver/Src/stm32f4xx_hal_rtc_ex.c **** /* Private function prototypes -----------------------------------------------*/
ARM GAS  /tmp/cckJJ7Hn.s 			page 4


 144:Drivers/STM32F4xx_HAL_Driver/Src/stm32f4xx_hal_rtc_ex.c **** /* Exported functions --------------------------------------------------------*/
 145:Drivers/STM32F4xx_HAL_Driver/Src/stm32f4xx_hal_rtc_ex.c **** 
 146:Drivers/STM32F4xx_HAL_Driver/Src/stm32f4xx_hal_rtc_ex.c **** /** @defgroup RTCEx_Exported_Functions RTCEx Exported Functions
 147:Drivers/STM32F4xx_HAL_Driver/Src/stm32f4xx_hal_rtc_ex.c ****   * @{
 148:Drivers/STM32F4xx_HAL_Driver/Src/stm32f4xx_hal_rtc_ex.c ****   */
 149:Drivers/STM32F4xx_HAL_Driver/Src/stm32f4xx_hal_rtc_ex.c **** 
 150:Drivers/STM32F4xx_HAL_Driver/Src/stm32f4xx_hal_rtc_ex.c **** /** @defgroup RTCEx_Exported_Functions_Group1 RTC Timestamp and Tamper functions
 151:Drivers/STM32F4xx_HAL_Driver/Src/stm32f4xx_hal_rtc_ex.c ****   * @brief    RTC Timestamp and Tamper functions
 152:Drivers/STM32F4xx_HAL_Driver/Src/stm32f4xx_hal_rtc_ex.c ****   *
 153:Drivers/STM32F4xx_HAL_Driver/Src/stm32f4xx_hal_rtc_ex.c **** @verbatim
 154:Drivers/STM32F4xx_HAL_Driver/Src/stm32f4xx_hal_rtc_ex.c ****  ===============================================================================
 155:Drivers/STM32F4xx_HAL_Driver/Src/stm32f4xx_hal_rtc_ex.c ****                  ##### RTC Timestamp and Tamper functions #####
 156:Drivers/STM32F4xx_HAL_Driver/Src/stm32f4xx_hal_rtc_ex.c ****  ===============================================================================
 157:Drivers/STM32F4xx_HAL_Driver/Src/stm32f4xx_hal_rtc_ex.c **** 
 158:Drivers/STM32F4xx_HAL_Driver/Src/stm32f4xx_hal_rtc_ex.c ****  [..] This section provides functions allowing to configure Timestamp feature
 159:Drivers/STM32F4xx_HAL_Driver/Src/stm32f4xx_hal_rtc_ex.c **** 
 160:Drivers/STM32F4xx_HAL_Driver/Src/stm32f4xx_hal_rtc_ex.c **** @endverbatim
 161:Drivers/STM32F4xx_HAL_Driver/Src/stm32f4xx_hal_rtc_ex.c ****   * @{
 162:Drivers/STM32F4xx_HAL_Driver/Src/stm32f4xx_hal_rtc_ex.c ****   */
 163:Drivers/STM32F4xx_HAL_Driver/Src/stm32f4xx_hal_rtc_ex.c **** 
 164:Drivers/STM32F4xx_HAL_Driver/Src/stm32f4xx_hal_rtc_ex.c **** /**
 165:Drivers/STM32F4xx_HAL_Driver/Src/stm32f4xx_hal_rtc_ex.c ****   * @brief  Sets Timestamp.
 166:Drivers/STM32F4xx_HAL_Driver/Src/stm32f4xx_hal_rtc_ex.c ****   * @note   This API must be called before enabling the Timestamp feature.
 167:Drivers/STM32F4xx_HAL_Driver/Src/stm32f4xx_hal_rtc_ex.c ****   * @param  hrtc pointer to a RTC_HandleTypeDef structure that contains
 168:Drivers/STM32F4xx_HAL_Driver/Src/stm32f4xx_hal_rtc_ex.c ****   *                the configuration information for RTC.
 169:Drivers/STM32F4xx_HAL_Driver/Src/stm32f4xx_hal_rtc_ex.c ****   * @param  RTC_TimeStampEdge Specifies the pin edge on which the Timestamp is
 170:Drivers/STM32F4xx_HAL_Driver/Src/stm32f4xx_hal_rtc_ex.c ****   *         activated.
 171:Drivers/STM32F4xx_HAL_Driver/Src/stm32f4xx_hal_rtc_ex.c ****   *          This parameter can be one of the following values:
 172:Drivers/STM32F4xx_HAL_Driver/Src/stm32f4xx_hal_rtc_ex.c ****   *             @arg RTC_TIMESTAMPEDGE_RISING: the Timestamp event occurs on
 173:Drivers/STM32F4xx_HAL_Driver/Src/stm32f4xx_hal_rtc_ex.c ****   *                                        the rising edge of the related pin.
 174:Drivers/STM32F4xx_HAL_Driver/Src/stm32f4xx_hal_rtc_ex.c ****   *             @arg RTC_TIMESTAMPEDGE_FALLING: the Timestamp event occurs on
 175:Drivers/STM32F4xx_HAL_Driver/Src/stm32f4xx_hal_rtc_ex.c ****   *                                        the falling edge of the related pin.
 176:Drivers/STM32F4xx_HAL_Driver/Src/stm32f4xx_hal_rtc_ex.c ****   * @param  RTC_TimeStampPin Specifies the RTC Timestamp Pin.
 177:Drivers/STM32F4xx_HAL_Driver/Src/stm32f4xx_hal_rtc_ex.c ****   *          This parameter can be one of the following values:
 178:Drivers/STM32F4xx_HAL_Driver/Src/stm32f4xx_hal_rtc_ex.c ****   *             @arg RTC_TIMESTAMPPIN_DEFAULT: PC13 is selected as RTC Timestamp Pin.
 179:Drivers/STM32F4xx_HAL_Driver/Src/stm32f4xx_hal_rtc_ex.c ****   *             @arg RTC_TIMESTAMPPIN_POS1: PI8 is selected as RTC Timestamp Pin.
 180:Drivers/STM32F4xx_HAL_Driver/Src/stm32f4xx_hal_rtc_ex.c ****   * @note RTC_TIMESTAMPPIN_POS1 corresponds to pin PA0 in the case of
 181:Drivers/STM32F4xx_HAL_Driver/Src/stm32f4xx_hal_rtc_ex.c ****   *       STM32F446xx devices.
 182:Drivers/STM32F4xx_HAL_Driver/Src/stm32f4xx_hal_rtc_ex.c ****   * @note RTC_TIMESTAMPPIN_POS1 is not applicable to the following list of devices:
 183:Drivers/STM32F4xx_HAL_Driver/Src/stm32f4xx_hal_rtc_ex.c ****   *       STM32F412xx, STM32F413xx and STM32F423xx.
 184:Drivers/STM32F4xx_HAL_Driver/Src/stm32f4xx_hal_rtc_ex.c ****   * @retval HAL status
 185:Drivers/STM32F4xx_HAL_Driver/Src/stm32f4xx_hal_rtc_ex.c ****   */
 186:Drivers/STM32F4xx_HAL_Driver/Src/stm32f4xx_hal_rtc_ex.c **** HAL_StatusTypeDef HAL_RTCEx_SetTimeStamp(RTC_HandleTypeDef *hrtc, uint32_t RTC_TimeStampEdge, uint3
 187:Drivers/STM32F4xx_HAL_Driver/Src/stm32f4xx_hal_rtc_ex.c **** {
  30              		.loc 1 187 1 view -0
  31              		.cfi_startproc
  32              		@ args = 0, pretend = 0, frame = 0
  33              		@ frame_needed = 0, uses_anonymous_args = 0
  34              		@ link register save eliminated.
 188:Drivers/STM32F4xx_HAL_Driver/Src/stm32f4xx_hal_rtc_ex.c ****   uint32_t tmpreg = 0U;
  35              		.loc 1 188 3 view .LVU1
 189:Drivers/STM32F4xx_HAL_Driver/Src/stm32f4xx_hal_rtc_ex.c **** 
 190:Drivers/STM32F4xx_HAL_Driver/Src/stm32f4xx_hal_rtc_ex.c ****   /* Check the parameters */
 191:Drivers/STM32F4xx_HAL_Driver/Src/stm32f4xx_hal_rtc_ex.c ****   assert_param(IS_TIMESTAMP_EDGE(RTC_TimeStampEdge));
  36              		.loc 1 191 3 view .LVU2
 192:Drivers/STM32F4xx_HAL_Driver/Src/stm32f4xx_hal_rtc_ex.c ****   assert_param(IS_RTC_TIMESTAMP_PIN(RTC_TimeStampPin));
  37              		.loc 1 192 3 view .LVU3
ARM GAS  /tmp/cckJJ7Hn.s 			page 5


 193:Drivers/STM32F4xx_HAL_Driver/Src/stm32f4xx_hal_rtc_ex.c **** 
 194:Drivers/STM32F4xx_HAL_Driver/Src/stm32f4xx_hal_rtc_ex.c ****   /* Process Locked */
 195:Drivers/STM32F4xx_HAL_Driver/Src/stm32f4xx_hal_rtc_ex.c ****   __HAL_LOCK(hrtc);
  38              		.loc 1 195 3 view .LVU4
  39              		.loc 1 195 3 view .LVU5
  40 0000 037F     		ldrb	r3, [r0, #28]	@ zero_extendqisi2
  41 0002 012B     		cmp	r3, #1
  42 0004 39D0     		beq	.L3
 187:Drivers/STM32F4xx_HAL_Driver/Src/stm32f4xx_hal_rtc_ex.c ****   uint32_t tmpreg = 0U;
  43              		.loc 1 187 1 is_stmt 0 discriminator 2 view .LVU6
  44 0006 10B4     		push	{r4}
  45              		.cfi_def_cfa_offset 4
  46              		.cfi_offset 4, -4
  47              		.loc 1 195 3 is_stmt 1 discriminator 2 view .LVU7
  48 0008 4FF0010C 		mov	ip, #1
  49 000c 80F81CC0 		strb	ip, [r0, #28]
  50              		.loc 1 195 3 discriminator 2 view .LVU8
 196:Drivers/STM32F4xx_HAL_Driver/Src/stm32f4xx_hal_rtc_ex.c **** 
 197:Drivers/STM32F4xx_HAL_Driver/Src/stm32f4xx_hal_rtc_ex.c ****   /* Change RTC state to BUSY */
 198:Drivers/STM32F4xx_HAL_Driver/Src/stm32f4xx_hal_rtc_ex.c ****   hrtc->State = HAL_RTC_STATE_BUSY;
  51              		.loc 1 198 3 discriminator 2 view .LVU9
  52              		.loc 1 198 15 is_stmt 0 discriminator 2 view .LVU10
  53 0010 0223     		movs	r3, #2
  54 0012 4377     		strb	r3, [r0, #29]
 199:Drivers/STM32F4xx_HAL_Driver/Src/stm32f4xx_hal_rtc_ex.c **** 
 200:Drivers/STM32F4xx_HAL_Driver/Src/stm32f4xx_hal_rtc_ex.c ****   hrtc->Instance->TAFCR &= (uint32_t)~RTC_TAFCR_TSINSEL;
  55              		.loc 1 200 3 is_stmt 1 discriminator 2 view .LVU11
  56              		.loc 1 200 7 is_stmt 0 discriminator 2 view .LVU12
  57 0014 0468     		ldr	r4, [r0]
  58              		.loc 1 200 25 discriminator 2 view .LVU13
  59 0016 236C     		ldr	r3, [r4, #64]
  60 0018 23F40033 		bic	r3, r3, #131072
  61 001c 2364     		str	r3, [r4, #64]
 201:Drivers/STM32F4xx_HAL_Driver/Src/stm32f4xx_hal_rtc_ex.c ****   hrtc->Instance->TAFCR |= (uint32_t)(RTC_TimeStampPin);
  62              		.loc 1 201 3 is_stmt 1 discriminator 2 view .LVU14
  63              		.loc 1 201 7 is_stmt 0 discriminator 2 view .LVU15
  64 001e 0468     		ldr	r4, [r0]
  65              		.loc 1 201 25 discriminator 2 view .LVU16
  66 0020 236C     		ldr	r3, [r4, #64]
  67 0022 1A43     		orrs	r2, r2, r3
  68              	.LVL1:
  69              		.loc 1 201 25 discriminator 2 view .LVU17
  70 0024 2264     		str	r2, [r4, #64]
 202:Drivers/STM32F4xx_HAL_Driver/Src/stm32f4xx_hal_rtc_ex.c **** 
 203:Drivers/STM32F4xx_HAL_Driver/Src/stm32f4xx_hal_rtc_ex.c ****   /* Get the RTC_CR register and clear the bits to be configured */
 204:Drivers/STM32F4xx_HAL_Driver/Src/stm32f4xx_hal_rtc_ex.c ****   tmpreg = (uint32_t)(hrtc->Instance->CR & (uint32_t)~(RTC_CR_TSEDGE | RTC_CR_TSE));
  71              		.loc 1 204 3 is_stmt 1 discriminator 2 view .LVU18
  72              		.loc 1 204 27 is_stmt 0 discriminator 2 view .LVU19
  73 0026 0468     		ldr	r4, [r0]
  74              		.loc 1 204 37 discriminator 2 view .LVU20
  75 0028 A368     		ldr	r3, [r4, #8]
  76              		.loc 1 204 10 discriminator 2 view .LVU21
  77 002a 23F40063 		bic	r3, r3, #2048
  78 002e 23F00803 		bic	r3, r3, #8
  79              	.LVL2:
 205:Drivers/STM32F4xx_HAL_Driver/Src/stm32f4xx_hal_rtc_ex.c **** 
 206:Drivers/STM32F4xx_HAL_Driver/Src/stm32f4xx_hal_rtc_ex.c ****   /* Configure the Timestamp TSEDGE bit */
ARM GAS  /tmp/cckJJ7Hn.s 			page 6


 207:Drivers/STM32F4xx_HAL_Driver/Src/stm32f4xx_hal_rtc_ex.c ****   tmpreg |= RTC_TimeStampEdge;
  80              		.loc 1 207 3 is_stmt 1 discriminator 2 view .LVU22
  81              		.loc 1 207 10 is_stmt 0 discriminator 2 view .LVU23
  82 0032 0B43     		orrs	r3, r3, r1
  83              	.LVL3:
 208:Drivers/STM32F4xx_HAL_Driver/Src/stm32f4xx_hal_rtc_ex.c **** 
 209:Drivers/STM32F4xx_HAL_Driver/Src/stm32f4xx_hal_rtc_ex.c ****   /* Disable the write protection for RTC registers */
 210:Drivers/STM32F4xx_HAL_Driver/Src/stm32f4xx_hal_rtc_ex.c ****   __HAL_RTC_WRITEPROTECTION_DISABLE(hrtc);
  84              		.loc 1 210 3 is_stmt 1 discriminator 2 view .LVU24
  85              		.loc 1 210 3 discriminator 2 view .LVU25
  86 0034 CA22     		movs	r2, #202
  87 0036 6262     		str	r2, [r4, #36]
  88              		.loc 1 210 3 discriminator 2 view .LVU26
  89 0038 0268     		ldr	r2, [r0]
  90 003a 5321     		movs	r1, #83
  91              	.LVL4:
  92              		.loc 1 210 3 is_stmt 0 discriminator 2 view .LVU27
  93 003c 5162     		str	r1, [r2, #36]
  94              		.loc 1 210 3 is_stmt 1 discriminator 2 view .LVU28
 211:Drivers/STM32F4xx_HAL_Driver/Src/stm32f4xx_hal_rtc_ex.c **** 
 212:Drivers/STM32F4xx_HAL_Driver/Src/stm32f4xx_hal_rtc_ex.c ****   /* Copy the desired configuration into the CR register */
 213:Drivers/STM32F4xx_HAL_Driver/Src/stm32f4xx_hal_rtc_ex.c ****   hrtc->Instance->CR = (uint32_t)tmpreg;
  95              		.loc 1 213 3 discriminator 2 view .LVU29
  96              		.loc 1 213 7 is_stmt 0 discriminator 2 view .LVU30
  97 003e 0268     		ldr	r2, [r0]
  98              		.loc 1 213 22 discriminator 2 view .LVU31
  99 0040 9360     		str	r3, [r2, #8]
 214:Drivers/STM32F4xx_HAL_Driver/Src/stm32f4xx_hal_rtc_ex.c **** 
 215:Drivers/STM32F4xx_HAL_Driver/Src/stm32f4xx_hal_rtc_ex.c ****   /* Clear RTC Timestamp flag */
 216:Drivers/STM32F4xx_HAL_Driver/Src/stm32f4xx_hal_rtc_ex.c ****   __HAL_RTC_TIMESTAMP_CLEAR_FLAG(hrtc, RTC_FLAG_TSF);
 100              		.loc 1 216 3 is_stmt 1 discriminator 2 view .LVU32
 101 0042 0268     		ldr	r2, [r0]
 102 0044 D368     		ldr	r3, [r2, #12]
 103              	.LVL5:
 104              		.loc 1 216 3 is_stmt 0 discriminator 2 view .LVU33
 105 0046 DBB2     		uxtb	r3, r3
 106 0048 63F40863 		orn	r3, r3, #2176
 107 004c D360     		str	r3, [r2, #12]
 217:Drivers/STM32F4xx_HAL_Driver/Src/stm32f4xx_hal_rtc_ex.c **** 
 218:Drivers/STM32F4xx_HAL_Driver/Src/stm32f4xx_hal_rtc_ex.c ****   /* Clear RTC Timestamp overrun Flag */
 219:Drivers/STM32F4xx_HAL_Driver/Src/stm32f4xx_hal_rtc_ex.c ****   __HAL_RTC_TIMESTAMP_CLEAR_FLAG(hrtc, RTC_FLAG_TSOVF);
 108              		.loc 1 219 3 is_stmt 1 discriminator 2 view .LVU34
 109 004e 0268     		ldr	r2, [r0]
 110 0050 D368     		ldr	r3, [r2, #12]
 111 0052 DBB2     		uxtb	r3, r3
 112 0054 63F48453 		orn	r3, r3, #4224
 113 0058 D360     		str	r3, [r2, #12]
 220:Drivers/STM32F4xx_HAL_Driver/Src/stm32f4xx_hal_rtc_ex.c **** 
 221:Drivers/STM32F4xx_HAL_Driver/Src/stm32f4xx_hal_rtc_ex.c ****   /* Enable the Timestamp saving */
 222:Drivers/STM32F4xx_HAL_Driver/Src/stm32f4xx_hal_rtc_ex.c ****   __HAL_RTC_TIMESTAMP_ENABLE(hrtc);
 114              		.loc 1 222 3 discriminator 2 view .LVU35
 115 005a 0268     		ldr	r2, [r0]
 116 005c 9368     		ldr	r3, [r2, #8]
 117 005e 43F40063 		orr	r3, r3, #2048
 118 0062 9360     		str	r3, [r2, #8]
 223:Drivers/STM32F4xx_HAL_Driver/Src/stm32f4xx_hal_rtc_ex.c **** 
 224:Drivers/STM32F4xx_HAL_Driver/Src/stm32f4xx_hal_rtc_ex.c ****   /* Enable the write protection for RTC registers */
ARM GAS  /tmp/cckJJ7Hn.s 			page 7


 225:Drivers/STM32F4xx_HAL_Driver/Src/stm32f4xx_hal_rtc_ex.c ****   __HAL_RTC_WRITEPROTECTION_ENABLE(hrtc);
 119              		.loc 1 225 3 discriminator 2 view .LVU36
 120              		.loc 1 225 3 discriminator 2 view .LVU37
 121 0064 0368     		ldr	r3, [r0]
 122 0066 FF22     		movs	r2, #255
 123 0068 5A62     		str	r2, [r3, #36]
 124              		.loc 1 225 3 discriminator 2 view .LVU38
 226:Drivers/STM32F4xx_HAL_Driver/Src/stm32f4xx_hal_rtc_ex.c **** 
 227:Drivers/STM32F4xx_HAL_Driver/Src/stm32f4xx_hal_rtc_ex.c ****   /* Change RTC state back to READY */
 228:Drivers/STM32F4xx_HAL_Driver/Src/stm32f4xx_hal_rtc_ex.c ****   hrtc->State = HAL_RTC_STATE_READY;
 125              		.loc 1 228 3 discriminator 2 view .LVU39
 126              		.loc 1 228 15 is_stmt 0 discriminator 2 view .LVU40
 127 006a 80F81DC0 		strb	ip, [r0, #29]
 229:Drivers/STM32F4xx_HAL_Driver/Src/stm32f4xx_hal_rtc_ex.c **** 
 230:Drivers/STM32F4xx_HAL_Driver/Src/stm32f4xx_hal_rtc_ex.c ****   /* Process Unlocked */
 231:Drivers/STM32F4xx_HAL_Driver/Src/stm32f4xx_hal_rtc_ex.c ****   __HAL_UNLOCK(hrtc);
 128              		.loc 1 231 3 is_stmt 1 discriminator 2 view .LVU41
 129              		.loc 1 231 3 discriminator 2 view .LVU42
 130 006e 0023     		movs	r3, #0
 131 0070 0377     		strb	r3, [r0, #28]
 132              		.loc 1 231 3 discriminator 2 view .LVU43
 232:Drivers/STM32F4xx_HAL_Driver/Src/stm32f4xx_hal_rtc_ex.c **** 
 233:Drivers/STM32F4xx_HAL_Driver/Src/stm32f4xx_hal_rtc_ex.c ****   return HAL_OK;
 133              		.loc 1 233 3 discriminator 2 view .LVU44
 134              		.loc 1 233 10 is_stmt 0 discriminator 2 view .LVU45
 135 0072 1846     		mov	r0, r3
 136              	.LVL6:
 234:Drivers/STM32F4xx_HAL_Driver/Src/stm32f4xx_hal_rtc_ex.c **** }
 137              		.loc 1 234 1 discriminator 2 view .LVU46
 138 0074 5DF8044B 		ldr	r4, [sp], #4
 139              		.cfi_restore 4
 140              		.cfi_def_cfa_offset 0
 141 0078 7047     		bx	lr
 142              	.LVL7:
 143              	.L3:
 195:Drivers/STM32F4xx_HAL_Driver/Src/stm32f4xx_hal_rtc_ex.c **** 
 144              		.loc 1 195 3 view .LVU47
 145 007a 0220     		movs	r0, #2
 146              	.LVL8:
 147              		.loc 1 234 1 view .LVU48
 148 007c 7047     		bx	lr
 149              		.cfi_endproc
 150              	.LFE130:
 152              		.section	.text.HAL_RTCEx_SetTimeStamp_IT,"ax",%progbits
 153              		.align	1
 154              		.global	HAL_RTCEx_SetTimeStamp_IT
 155              		.syntax unified
 156              		.thumb
 157              		.thumb_func
 159              	HAL_RTCEx_SetTimeStamp_IT:
 160              	.LVL9:
 161              	.LFB131:
 235:Drivers/STM32F4xx_HAL_Driver/Src/stm32f4xx_hal_rtc_ex.c **** 
 236:Drivers/STM32F4xx_HAL_Driver/Src/stm32f4xx_hal_rtc_ex.c **** /**
 237:Drivers/STM32F4xx_HAL_Driver/Src/stm32f4xx_hal_rtc_ex.c ****   * @brief  Sets Timestamp with Interrupt.
 238:Drivers/STM32F4xx_HAL_Driver/Src/stm32f4xx_hal_rtc_ex.c ****   * @param  hrtc pointer to a RTC_HandleTypeDef structure that contains
 239:Drivers/STM32F4xx_HAL_Driver/Src/stm32f4xx_hal_rtc_ex.c ****   *                the configuration information for RTC.
ARM GAS  /tmp/cckJJ7Hn.s 			page 8


 240:Drivers/STM32F4xx_HAL_Driver/Src/stm32f4xx_hal_rtc_ex.c ****   * @note   This API must be called before enabling the Timestamp feature.
 241:Drivers/STM32F4xx_HAL_Driver/Src/stm32f4xx_hal_rtc_ex.c ****   * @param  RTC_TimeStampEdge Specifies the pin edge on which the Timestamp is
 242:Drivers/STM32F4xx_HAL_Driver/Src/stm32f4xx_hal_rtc_ex.c ****   *         activated.
 243:Drivers/STM32F4xx_HAL_Driver/Src/stm32f4xx_hal_rtc_ex.c ****   *          This parameter can be one of the following values:
 244:Drivers/STM32F4xx_HAL_Driver/Src/stm32f4xx_hal_rtc_ex.c ****   *             @arg RTC_TIMESTAMPEDGE_RISING: the Timestamp event occurs on
 245:Drivers/STM32F4xx_HAL_Driver/Src/stm32f4xx_hal_rtc_ex.c ****   *                                        the rising edge of the related pin.
 246:Drivers/STM32F4xx_HAL_Driver/Src/stm32f4xx_hal_rtc_ex.c ****   *             @arg RTC_TIMESTAMPEDGE_FALLING: the Timestamp event occurs on
 247:Drivers/STM32F4xx_HAL_Driver/Src/stm32f4xx_hal_rtc_ex.c ****   *                                        the falling edge of the related pin.
 248:Drivers/STM32F4xx_HAL_Driver/Src/stm32f4xx_hal_rtc_ex.c ****   * @param  RTC_TimeStampPin Specifies the RTC Timestamp Pin.
 249:Drivers/STM32F4xx_HAL_Driver/Src/stm32f4xx_hal_rtc_ex.c ****   *          This parameter can be one of the following values:
 250:Drivers/STM32F4xx_HAL_Driver/Src/stm32f4xx_hal_rtc_ex.c ****   *             @arg RTC_TIMESTAMPPIN_DEFAULT: PC13 is selected as RTC Timestamp Pin.
 251:Drivers/STM32F4xx_HAL_Driver/Src/stm32f4xx_hal_rtc_ex.c ****   *             @arg RTC_TIMESTAMPPIN_POS1: PI8 is selected as RTC Timestamp Pin.
 252:Drivers/STM32F4xx_HAL_Driver/Src/stm32f4xx_hal_rtc_ex.c ****   * @note RTC_TIMESTAMPPIN_POS1 corresponds to pin PA0 in the case of
 253:Drivers/STM32F4xx_HAL_Driver/Src/stm32f4xx_hal_rtc_ex.c ****   *       STM32F446xx devices.
 254:Drivers/STM32F4xx_HAL_Driver/Src/stm32f4xx_hal_rtc_ex.c ****   * @note RTC_TIMESTAMPPIN_POS1 is not applicable to the following list of devices:
 255:Drivers/STM32F4xx_HAL_Driver/Src/stm32f4xx_hal_rtc_ex.c ****   *       STM32F412xx, STM32F413xx and STM32F423xx.
 256:Drivers/STM32F4xx_HAL_Driver/Src/stm32f4xx_hal_rtc_ex.c ****   * @retval HAL status
 257:Drivers/STM32F4xx_HAL_Driver/Src/stm32f4xx_hal_rtc_ex.c ****   */
 258:Drivers/STM32F4xx_HAL_Driver/Src/stm32f4xx_hal_rtc_ex.c **** HAL_StatusTypeDef HAL_RTCEx_SetTimeStamp_IT(RTC_HandleTypeDef *hrtc, uint32_t RTC_TimeStampEdge, ui
 259:Drivers/STM32F4xx_HAL_Driver/Src/stm32f4xx_hal_rtc_ex.c **** {
 162              		.loc 1 259 1 is_stmt 1 view -0
 163              		.cfi_startproc
 164              		@ args = 0, pretend = 0, frame = 0
 165              		@ frame_needed = 0, uses_anonymous_args = 0
 166              		@ link register save eliminated.
 260:Drivers/STM32F4xx_HAL_Driver/Src/stm32f4xx_hal_rtc_ex.c ****   uint32_t tmpreg = 0U;
 167              		.loc 1 260 3 view .LVU50
 261:Drivers/STM32F4xx_HAL_Driver/Src/stm32f4xx_hal_rtc_ex.c **** 
 262:Drivers/STM32F4xx_HAL_Driver/Src/stm32f4xx_hal_rtc_ex.c ****   /* Check the parameters */
 263:Drivers/STM32F4xx_HAL_Driver/Src/stm32f4xx_hal_rtc_ex.c ****   assert_param(IS_TIMESTAMP_EDGE(RTC_TimeStampEdge));
 168              		.loc 1 263 3 view .LVU51
 264:Drivers/STM32F4xx_HAL_Driver/Src/stm32f4xx_hal_rtc_ex.c ****   assert_param(IS_RTC_TIMESTAMP_PIN(RTC_TimeStampPin));
 169              		.loc 1 264 3 view .LVU52
 265:Drivers/STM32F4xx_HAL_Driver/Src/stm32f4xx_hal_rtc_ex.c **** 
 266:Drivers/STM32F4xx_HAL_Driver/Src/stm32f4xx_hal_rtc_ex.c ****   /* Process Locked */
 267:Drivers/STM32F4xx_HAL_Driver/Src/stm32f4xx_hal_rtc_ex.c ****   __HAL_LOCK(hrtc);
 170              		.loc 1 267 3 view .LVU53
 171              		.loc 1 267 3 view .LVU54
 172 0000 037F     		ldrb	r3, [r0, #28]	@ zero_extendqisi2
 173 0002 012B     		cmp	r3, #1
 174 0004 47D0     		beq	.L10
 259:Drivers/STM32F4xx_HAL_Driver/Src/stm32f4xx_hal_rtc_ex.c ****   uint32_t tmpreg = 0U;
 175              		.loc 1 259 1 is_stmt 0 discriminator 2 view .LVU55
 176 0006 10B4     		push	{r4}
 177              		.cfi_def_cfa_offset 4
 178              		.cfi_offset 4, -4
 179              		.loc 1 267 3 is_stmt 1 discriminator 2 view .LVU56
 180 0008 4FF0010C 		mov	ip, #1
 181 000c 80F81CC0 		strb	ip, [r0, #28]
 182              		.loc 1 267 3 discriminator 2 view .LVU57
 268:Drivers/STM32F4xx_HAL_Driver/Src/stm32f4xx_hal_rtc_ex.c **** 
 269:Drivers/STM32F4xx_HAL_Driver/Src/stm32f4xx_hal_rtc_ex.c ****   /* Change RTC state to BUSY */
 270:Drivers/STM32F4xx_HAL_Driver/Src/stm32f4xx_hal_rtc_ex.c ****   hrtc->State = HAL_RTC_STATE_BUSY;
 183              		.loc 1 270 3 discriminator 2 view .LVU58
 184              		.loc 1 270 15 is_stmt 0 discriminator 2 view .LVU59
 185 0010 0223     		movs	r3, #2
 186 0012 4377     		strb	r3, [r0, #29]
ARM GAS  /tmp/cckJJ7Hn.s 			page 9


 271:Drivers/STM32F4xx_HAL_Driver/Src/stm32f4xx_hal_rtc_ex.c **** 
 272:Drivers/STM32F4xx_HAL_Driver/Src/stm32f4xx_hal_rtc_ex.c ****   hrtc->Instance->TAFCR &= (uint32_t)~RTC_TAFCR_TSINSEL;
 187              		.loc 1 272 3 is_stmt 1 discriminator 2 view .LVU60
 188              		.loc 1 272 7 is_stmt 0 discriminator 2 view .LVU61
 189 0014 0468     		ldr	r4, [r0]
 190              		.loc 1 272 25 discriminator 2 view .LVU62
 191 0016 236C     		ldr	r3, [r4, #64]
 192 0018 23F40033 		bic	r3, r3, #131072
 193 001c 2364     		str	r3, [r4, #64]
 273:Drivers/STM32F4xx_HAL_Driver/Src/stm32f4xx_hal_rtc_ex.c ****   hrtc->Instance->TAFCR |= (uint32_t)(RTC_TimeStampPin);
 194              		.loc 1 273 3 is_stmt 1 discriminator 2 view .LVU63
 195              		.loc 1 273 7 is_stmt 0 discriminator 2 view .LVU64
 196 001e 0468     		ldr	r4, [r0]
 197              		.loc 1 273 25 discriminator 2 view .LVU65
 198 0020 236C     		ldr	r3, [r4, #64]
 199 0022 1A43     		orrs	r2, r2, r3
 200              	.LVL10:
 201              		.loc 1 273 25 discriminator 2 view .LVU66
 202 0024 2264     		str	r2, [r4, #64]
 274:Drivers/STM32F4xx_HAL_Driver/Src/stm32f4xx_hal_rtc_ex.c **** 
 275:Drivers/STM32F4xx_HAL_Driver/Src/stm32f4xx_hal_rtc_ex.c ****   /* Get the RTC_CR register and clear the bits to be configured */
 276:Drivers/STM32F4xx_HAL_Driver/Src/stm32f4xx_hal_rtc_ex.c ****   tmpreg = (uint32_t)(hrtc->Instance->CR & (uint32_t)~(RTC_CR_TSEDGE | RTC_CR_TSE));
 203              		.loc 1 276 3 is_stmt 1 discriminator 2 view .LVU67
 204              		.loc 1 276 27 is_stmt 0 discriminator 2 view .LVU68
 205 0026 0468     		ldr	r4, [r0]
 206              		.loc 1 276 37 discriminator 2 view .LVU69
 207 0028 A368     		ldr	r3, [r4, #8]
 208              		.loc 1 276 10 discriminator 2 view .LVU70
 209 002a 23F40063 		bic	r3, r3, #2048
 210 002e 23F00803 		bic	r3, r3, #8
 211              	.LVL11:
 277:Drivers/STM32F4xx_HAL_Driver/Src/stm32f4xx_hal_rtc_ex.c **** 
 278:Drivers/STM32F4xx_HAL_Driver/Src/stm32f4xx_hal_rtc_ex.c ****   /* Configure the Timestamp TSEDGE bit */
 279:Drivers/STM32F4xx_HAL_Driver/Src/stm32f4xx_hal_rtc_ex.c ****   tmpreg |= RTC_TimeStampEdge;
 212              		.loc 1 279 3 is_stmt 1 discriminator 2 view .LVU71
 213              		.loc 1 279 10 is_stmt 0 discriminator 2 view .LVU72
 214 0032 0B43     		orrs	r3, r3, r1
 215              	.LVL12:
 280:Drivers/STM32F4xx_HAL_Driver/Src/stm32f4xx_hal_rtc_ex.c **** 
 281:Drivers/STM32F4xx_HAL_Driver/Src/stm32f4xx_hal_rtc_ex.c ****   /* Disable the write protection for RTC registers */
 282:Drivers/STM32F4xx_HAL_Driver/Src/stm32f4xx_hal_rtc_ex.c ****   __HAL_RTC_WRITEPROTECTION_DISABLE(hrtc);
 216              		.loc 1 282 3 is_stmt 1 discriminator 2 view .LVU73
 217              		.loc 1 282 3 discriminator 2 view .LVU74
 218 0034 CA22     		movs	r2, #202
 219 0036 6262     		str	r2, [r4, #36]
 220              		.loc 1 282 3 discriminator 2 view .LVU75
 221 0038 0268     		ldr	r2, [r0]
 222 003a 5321     		movs	r1, #83
 223              	.LVL13:
 224              		.loc 1 282 3 is_stmt 0 discriminator 2 view .LVU76
 225 003c 5162     		str	r1, [r2, #36]
 226              		.loc 1 282 3 is_stmt 1 discriminator 2 view .LVU77
 283:Drivers/STM32F4xx_HAL_Driver/Src/stm32f4xx_hal_rtc_ex.c **** 
 284:Drivers/STM32F4xx_HAL_Driver/Src/stm32f4xx_hal_rtc_ex.c ****   /* Copy the desired configuration into the CR register */
 285:Drivers/STM32F4xx_HAL_Driver/Src/stm32f4xx_hal_rtc_ex.c ****   hrtc->Instance->CR = (uint32_t)tmpreg;
 227              		.loc 1 285 3 discriminator 2 view .LVU78
 228              		.loc 1 285 7 is_stmt 0 discriminator 2 view .LVU79
ARM GAS  /tmp/cckJJ7Hn.s 			page 10


 229 003e 0268     		ldr	r2, [r0]
 230              		.loc 1 285 22 discriminator 2 view .LVU80
 231 0040 9360     		str	r3, [r2, #8]
 286:Drivers/STM32F4xx_HAL_Driver/Src/stm32f4xx_hal_rtc_ex.c **** 
 287:Drivers/STM32F4xx_HAL_Driver/Src/stm32f4xx_hal_rtc_ex.c ****   /* Clear RTC Timestamp flag */
 288:Drivers/STM32F4xx_HAL_Driver/Src/stm32f4xx_hal_rtc_ex.c ****   __HAL_RTC_TIMESTAMP_CLEAR_FLAG(hrtc, RTC_FLAG_TSF);
 232              		.loc 1 288 3 is_stmt 1 discriminator 2 view .LVU81
 233 0042 0268     		ldr	r2, [r0]
 234 0044 D368     		ldr	r3, [r2, #12]
 235              	.LVL14:
 236              		.loc 1 288 3 is_stmt 0 discriminator 2 view .LVU82
 237 0046 DBB2     		uxtb	r3, r3
 238 0048 63F40863 		orn	r3, r3, #2176
 239 004c D360     		str	r3, [r2, #12]
 289:Drivers/STM32F4xx_HAL_Driver/Src/stm32f4xx_hal_rtc_ex.c **** 
 290:Drivers/STM32F4xx_HAL_Driver/Src/stm32f4xx_hal_rtc_ex.c ****   /* Clear RTC Timestamp overrun Flag */
 291:Drivers/STM32F4xx_HAL_Driver/Src/stm32f4xx_hal_rtc_ex.c ****   __HAL_RTC_TIMESTAMP_CLEAR_FLAG(hrtc, RTC_FLAG_TSOVF);
 240              		.loc 1 291 3 is_stmt 1 discriminator 2 view .LVU83
 241 004e 0268     		ldr	r2, [r0]
 242 0050 D368     		ldr	r3, [r2, #12]
 243 0052 DBB2     		uxtb	r3, r3
 244 0054 63F48453 		orn	r3, r3, #4224
 245 0058 D360     		str	r3, [r2, #12]
 292:Drivers/STM32F4xx_HAL_Driver/Src/stm32f4xx_hal_rtc_ex.c **** 
 293:Drivers/STM32F4xx_HAL_Driver/Src/stm32f4xx_hal_rtc_ex.c ****   /* Enable the Timestamp saving */
 294:Drivers/STM32F4xx_HAL_Driver/Src/stm32f4xx_hal_rtc_ex.c ****   __HAL_RTC_TIMESTAMP_ENABLE(hrtc);
 246              		.loc 1 294 3 discriminator 2 view .LVU84
 247 005a 0268     		ldr	r2, [r0]
 248 005c 9368     		ldr	r3, [r2, #8]
 249 005e 43F40063 		orr	r3, r3, #2048
 250 0062 9360     		str	r3, [r2, #8]
 295:Drivers/STM32F4xx_HAL_Driver/Src/stm32f4xx_hal_rtc_ex.c **** 
 296:Drivers/STM32F4xx_HAL_Driver/Src/stm32f4xx_hal_rtc_ex.c ****   /* Enable IT Timestamp */
 297:Drivers/STM32F4xx_HAL_Driver/Src/stm32f4xx_hal_rtc_ex.c ****   __HAL_RTC_TIMESTAMP_ENABLE_IT(hrtc, RTC_IT_TS);
 251              		.loc 1 297 3 discriminator 2 view .LVU85
 252 0064 0268     		ldr	r2, [r0]
 253 0066 9368     		ldr	r3, [r2, #8]
 254 0068 43F40043 		orr	r3, r3, #32768
 255 006c 9360     		str	r3, [r2, #8]
 298:Drivers/STM32F4xx_HAL_Driver/Src/stm32f4xx_hal_rtc_ex.c **** 
 299:Drivers/STM32F4xx_HAL_Driver/Src/stm32f4xx_hal_rtc_ex.c ****   /* Enable the write protection for RTC registers */
 300:Drivers/STM32F4xx_HAL_Driver/Src/stm32f4xx_hal_rtc_ex.c ****   __HAL_RTC_WRITEPROTECTION_ENABLE(hrtc);
 256              		.loc 1 300 3 discriminator 2 view .LVU86
 257              		.loc 1 300 3 discriminator 2 view .LVU87
 258 006e 0368     		ldr	r3, [r0]
 259 0070 FF22     		movs	r2, #255
 260 0072 5A62     		str	r2, [r3, #36]
 261              		.loc 1 300 3 discriminator 2 view .LVU88
 301:Drivers/STM32F4xx_HAL_Driver/Src/stm32f4xx_hal_rtc_ex.c **** 
 302:Drivers/STM32F4xx_HAL_Driver/Src/stm32f4xx_hal_rtc_ex.c ****   /* RTC Timestamp Interrupt Configuration: EXTI configuration */
 303:Drivers/STM32F4xx_HAL_Driver/Src/stm32f4xx_hal_rtc_ex.c ****   __HAL_RTC_TAMPER_TIMESTAMP_EXTI_ENABLE_IT();
 262              		.loc 1 303 3 discriminator 2 view .LVU89
 263 0074 094B     		ldr	r3, .L15
 264 0076 1A68     		ldr	r2, [r3]
 265 0078 42F40012 		orr	r2, r2, #2097152
 266 007c 1A60     		str	r2, [r3]
 304:Drivers/STM32F4xx_HAL_Driver/Src/stm32f4xx_hal_rtc_ex.c ****   __HAL_RTC_TAMPER_TIMESTAMP_EXTI_ENABLE_RISING_EDGE();
ARM GAS  /tmp/cckJJ7Hn.s 			page 11


 267              		.loc 1 304 3 discriminator 2 view .LVU90
 268 007e 9A68     		ldr	r2, [r3, #8]
 269 0080 42F40012 		orr	r2, r2, #2097152
 270 0084 9A60     		str	r2, [r3, #8]
 305:Drivers/STM32F4xx_HAL_Driver/Src/stm32f4xx_hal_rtc_ex.c **** 
 306:Drivers/STM32F4xx_HAL_Driver/Src/stm32f4xx_hal_rtc_ex.c ****   /* Change RTC state back to READY */
 307:Drivers/STM32F4xx_HAL_Driver/Src/stm32f4xx_hal_rtc_ex.c ****   hrtc->State = HAL_RTC_STATE_READY;
 271              		.loc 1 307 3 discriminator 2 view .LVU91
 272              		.loc 1 307 15 is_stmt 0 discriminator 2 view .LVU92
 273 0086 80F81DC0 		strb	ip, [r0, #29]
 308:Drivers/STM32F4xx_HAL_Driver/Src/stm32f4xx_hal_rtc_ex.c **** 
 309:Drivers/STM32F4xx_HAL_Driver/Src/stm32f4xx_hal_rtc_ex.c ****   /* Process Unlocked */
 310:Drivers/STM32F4xx_HAL_Driver/Src/stm32f4xx_hal_rtc_ex.c ****   __HAL_UNLOCK(hrtc);
 274              		.loc 1 310 3 is_stmt 1 discriminator 2 view .LVU93
 275              		.loc 1 310 3 discriminator 2 view .LVU94
 276 008a 0023     		movs	r3, #0
 277 008c 0377     		strb	r3, [r0, #28]
 278              		.loc 1 310 3 discriminator 2 view .LVU95
 311:Drivers/STM32F4xx_HAL_Driver/Src/stm32f4xx_hal_rtc_ex.c **** 
 312:Drivers/STM32F4xx_HAL_Driver/Src/stm32f4xx_hal_rtc_ex.c ****   return HAL_OK;
 279              		.loc 1 312 3 discriminator 2 view .LVU96
 280              		.loc 1 312 10 is_stmt 0 discriminator 2 view .LVU97
 281 008e 1846     		mov	r0, r3
 282              	.LVL15:
 313:Drivers/STM32F4xx_HAL_Driver/Src/stm32f4xx_hal_rtc_ex.c **** }
 283              		.loc 1 313 1 discriminator 2 view .LVU98
 284 0090 5DF8044B 		ldr	r4, [sp], #4
 285              		.cfi_restore 4
 286              		.cfi_def_cfa_offset 0
 287 0094 7047     		bx	lr
 288              	.LVL16:
 289              	.L10:
 267:Drivers/STM32F4xx_HAL_Driver/Src/stm32f4xx_hal_rtc_ex.c **** 
 290              		.loc 1 267 3 view .LVU99
 291 0096 0220     		movs	r0, #2
 292              	.LVL17:
 293              		.loc 1 313 1 view .LVU100
 294 0098 7047     		bx	lr
 295              	.L16:
 296 009a 00BF     		.align	2
 297              	.L15:
 298 009c 003C0140 		.word	1073822720
 299              		.cfi_endproc
 300              	.LFE131:
 302              		.section	.text.HAL_RTCEx_DeactivateTimeStamp,"ax",%progbits
 303              		.align	1
 304              		.global	HAL_RTCEx_DeactivateTimeStamp
 305              		.syntax unified
 306              		.thumb
 307              		.thumb_func
 309              	HAL_RTCEx_DeactivateTimeStamp:
 310              	.LVL18:
 311              	.LFB132:
 314:Drivers/STM32F4xx_HAL_Driver/Src/stm32f4xx_hal_rtc_ex.c **** 
 315:Drivers/STM32F4xx_HAL_Driver/Src/stm32f4xx_hal_rtc_ex.c **** /**
 316:Drivers/STM32F4xx_HAL_Driver/Src/stm32f4xx_hal_rtc_ex.c ****   * @brief  Deactivates Timestamp.
 317:Drivers/STM32F4xx_HAL_Driver/Src/stm32f4xx_hal_rtc_ex.c ****   * @param  hrtc pointer to a RTC_HandleTypeDef structure that contains
ARM GAS  /tmp/cckJJ7Hn.s 			page 12


 318:Drivers/STM32F4xx_HAL_Driver/Src/stm32f4xx_hal_rtc_ex.c ****   *                the configuration information for RTC.
 319:Drivers/STM32F4xx_HAL_Driver/Src/stm32f4xx_hal_rtc_ex.c ****   * @retval HAL status
 320:Drivers/STM32F4xx_HAL_Driver/Src/stm32f4xx_hal_rtc_ex.c ****   */
 321:Drivers/STM32F4xx_HAL_Driver/Src/stm32f4xx_hal_rtc_ex.c **** HAL_StatusTypeDef HAL_RTCEx_DeactivateTimeStamp(RTC_HandleTypeDef *hrtc)
 322:Drivers/STM32F4xx_HAL_Driver/Src/stm32f4xx_hal_rtc_ex.c **** {
 312              		.loc 1 322 1 is_stmt 1 view -0
 313              		.cfi_startproc
 314              		@ args = 0, pretend = 0, frame = 0
 315              		@ frame_needed = 0, uses_anonymous_args = 0
 316              		@ link register save eliminated.
 323:Drivers/STM32F4xx_HAL_Driver/Src/stm32f4xx_hal_rtc_ex.c ****   uint32_t tmpreg = 0U;
 317              		.loc 1 323 3 view .LVU102
 324:Drivers/STM32F4xx_HAL_Driver/Src/stm32f4xx_hal_rtc_ex.c **** 
 325:Drivers/STM32F4xx_HAL_Driver/Src/stm32f4xx_hal_rtc_ex.c ****   /* Process Locked */
 326:Drivers/STM32F4xx_HAL_Driver/Src/stm32f4xx_hal_rtc_ex.c ****   __HAL_LOCK(hrtc);
 318              		.loc 1 326 3 view .LVU103
 319              		.loc 1 326 3 view .LVU104
 320 0000 037F     		ldrb	r3, [r0, #28]	@ zero_extendqisi2
 321 0002 012B     		cmp	r3, #1
 322 0004 1DD0     		beq	.L19
 323              		.loc 1 326 3 discriminator 2 view .LVU105
 324 0006 0122     		movs	r2, #1
 325 0008 0277     		strb	r2, [r0, #28]
 326              		.loc 1 326 3 discriminator 2 view .LVU106
 327:Drivers/STM32F4xx_HAL_Driver/Src/stm32f4xx_hal_rtc_ex.c **** 
 328:Drivers/STM32F4xx_HAL_Driver/Src/stm32f4xx_hal_rtc_ex.c ****   hrtc->State = HAL_RTC_STATE_BUSY;
 327              		.loc 1 328 3 discriminator 2 view .LVU107
 328              		.loc 1 328 15 is_stmt 0 discriminator 2 view .LVU108
 329 000a 0223     		movs	r3, #2
 330 000c 4377     		strb	r3, [r0, #29]
 329:Drivers/STM32F4xx_HAL_Driver/Src/stm32f4xx_hal_rtc_ex.c **** 
 330:Drivers/STM32F4xx_HAL_Driver/Src/stm32f4xx_hal_rtc_ex.c ****   /* Disable the write protection for RTC registers */
 331:Drivers/STM32F4xx_HAL_Driver/Src/stm32f4xx_hal_rtc_ex.c ****   __HAL_RTC_WRITEPROTECTION_DISABLE(hrtc);
 331              		.loc 1 331 3 is_stmt 1 discriminator 2 view .LVU109
 332              		.loc 1 331 3 discriminator 2 view .LVU110
 333 000e 0368     		ldr	r3, [r0]
 334 0010 CA21     		movs	r1, #202
 335 0012 5962     		str	r1, [r3, #36]
 336              		.loc 1 331 3 discriminator 2 view .LVU111
 337 0014 0368     		ldr	r3, [r0]
 338 0016 5321     		movs	r1, #83
 339 0018 5962     		str	r1, [r3, #36]
 340              		.loc 1 331 3 discriminator 2 view .LVU112
 332:Drivers/STM32F4xx_HAL_Driver/Src/stm32f4xx_hal_rtc_ex.c **** 
 333:Drivers/STM32F4xx_HAL_Driver/Src/stm32f4xx_hal_rtc_ex.c ****   /* In case of interrupt mode is used, the interrupt source must disabled */
 334:Drivers/STM32F4xx_HAL_Driver/Src/stm32f4xx_hal_rtc_ex.c ****   __HAL_RTC_TIMESTAMP_DISABLE_IT(hrtc, RTC_IT_TS);
 341              		.loc 1 334 3 discriminator 2 view .LVU113
 342 001a 0168     		ldr	r1, [r0]
 343 001c 8B68     		ldr	r3, [r1, #8]
 344 001e 23F40043 		bic	r3, r3, #32768
 345 0022 8B60     		str	r3, [r1, #8]
 335:Drivers/STM32F4xx_HAL_Driver/Src/stm32f4xx_hal_rtc_ex.c **** 
 336:Drivers/STM32F4xx_HAL_Driver/Src/stm32f4xx_hal_rtc_ex.c ****   /* Get the RTC_CR register and clear the bits to be configured */
 337:Drivers/STM32F4xx_HAL_Driver/Src/stm32f4xx_hal_rtc_ex.c ****   tmpreg = (uint32_t)(hrtc->Instance->CR & (uint32_t)~(RTC_CR_TSEDGE | RTC_CR_TSE));
 346              		.loc 1 337 3 discriminator 2 view .LVU114
 347              		.loc 1 337 27 is_stmt 0 discriminator 2 view .LVU115
 348 0024 0168     		ldr	r1, [r0]
ARM GAS  /tmp/cckJJ7Hn.s 			page 13


 349              		.loc 1 337 37 discriminator 2 view .LVU116
 350 0026 8B68     		ldr	r3, [r1, #8]
 351              		.loc 1 337 10 discriminator 2 view .LVU117
 352 0028 23F40063 		bic	r3, r3, #2048
 353 002c 23F00803 		bic	r3, r3, #8
 354              	.LVL19:
 338:Drivers/STM32F4xx_HAL_Driver/Src/stm32f4xx_hal_rtc_ex.c **** 
 339:Drivers/STM32F4xx_HAL_Driver/Src/stm32f4xx_hal_rtc_ex.c ****   /* Configure the Timestamp TSEDGE and Enable bits */
 340:Drivers/STM32F4xx_HAL_Driver/Src/stm32f4xx_hal_rtc_ex.c ****   hrtc->Instance->CR = (uint32_t)tmpreg;
 355              		.loc 1 340 3 is_stmt 1 discriminator 2 view .LVU118
 356              		.loc 1 340 22 is_stmt 0 discriminator 2 view .LVU119
 357 0030 8B60     		str	r3, [r1, #8]
 341:Drivers/STM32F4xx_HAL_Driver/Src/stm32f4xx_hal_rtc_ex.c **** 
 342:Drivers/STM32F4xx_HAL_Driver/Src/stm32f4xx_hal_rtc_ex.c ****   /* Enable the write protection for RTC registers */
 343:Drivers/STM32F4xx_HAL_Driver/Src/stm32f4xx_hal_rtc_ex.c ****   __HAL_RTC_WRITEPROTECTION_ENABLE(hrtc);
 358              		.loc 1 343 3 is_stmt 1 discriminator 2 view .LVU120
 359              		.loc 1 343 3 discriminator 2 view .LVU121
 360 0032 0368     		ldr	r3, [r0]
 361              	.LVL20:
 362              		.loc 1 343 3 is_stmt 0 discriminator 2 view .LVU122
 363 0034 FF21     		movs	r1, #255
 364              	.LVL21:
 365              		.loc 1 343 3 discriminator 2 view .LVU123
 366 0036 5962     		str	r1, [r3, #36]
 367              		.loc 1 343 3 is_stmt 1 discriminator 2 view .LVU124
 344:Drivers/STM32F4xx_HAL_Driver/Src/stm32f4xx_hal_rtc_ex.c **** 
 345:Drivers/STM32F4xx_HAL_Driver/Src/stm32f4xx_hal_rtc_ex.c ****   hrtc->State = HAL_RTC_STATE_READY;
 368              		.loc 1 345 3 discriminator 2 view .LVU125
 369              		.loc 1 345 15 is_stmt 0 discriminator 2 view .LVU126
 370 0038 4277     		strb	r2, [r0, #29]
 346:Drivers/STM32F4xx_HAL_Driver/Src/stm32f4xx_hal_rtc_ex.c **** 
 347:Drivers/STM32F4xx_HAL_Driver/Src/stm32f4xx_hal_rtc_ex.c ****   /* Process Unlocked */
 348:Drivers/STM32F4xx_HAL_Driver/Src/stm32f4xx_hal_rtc_ex.c ****   __HAL_UNLOCK(hrtc);
 371              		.loc 1 348 3 is_stmt 1 discriminator 2 view .LVU127
 372              		.loc 1 348 3 discriminator 2 view .LVU128
 373 003a 0023     		movs	r3, #0
 374 003c 0377     		strb	r3, [r0, #28]
 375              		.loc 1 348 3 discriminator 2 view .LVU129
 349:Drivers/STM32F4xx_HAL_Driver/Src/stm32f4xx_hal_rtc_ex.c **** 
 350:Drivers/STM32F4xx_HAL_Driver/Src/stm32f4xx_hal_rtc_ex.c ****   return HAL_OK;
 376              		.loc 1 350 3 discriminator 2 view .LVU130
 377              		.loc 1 350 10 is_stmt 0 discriminator 2 view .LVU131
 378 003e 1846     		mov	r0, r3
 379              	.LVL22:
 380              		.loc 1 350 10 discriminator 2 view .LVU132
 381 0040 7047     		bx	lr
 382              	.LVL23:
 383              	.L19:
 326:Drivers/STM32F4xx_HAL_Driver/Src/stm32f4xx_hal_rtc_ex.c **** 
 384              		.loc 1 326 3 view .LVU133
 385 0042 0220     		movs	r0, #2
 386              	.LVL24:
 351:Drivers/STM32F4xx_HAL_Driver/Src/stm32f4xx_hal_rtc_ex.c **** }
 387              		.loc 1 351 1 view .LVU134
 388 0044 7047     		bx	lr
 389              		.cfi_endproc
 390              	.LFE132:
ARM GAS  /tmp/cckJJ7Hn.s 			page 14


 392              		.section	.text.HAL_RTCEx_GetTimeStamp,"ax",%progbits
 393              		.align	1
 394              		.global	HAL_RTCEx_GetTimeStamp
 395              		.syntax unified
 396              		.thumb
 397              		.thumb_func
 399              	HAL_RTCEx_GetTimeStamp:
 400              	.LVL25:
 401              	.LFB133:
 352:Drivers/STM32F4xx_HAL_Driver/Src/stm32f4xx_hal_rtc_ex.c **** 
 353:Drivers/STM32F4xx_HAL_Driver/Src/stm32f4xx_hal_rtc_ex.c **** /**
 354:Drivers/STM32F4xx_HAL_Driver/Src/stm32f4xx_hal_rtc_ex.c ****   * @brief  Gets the RTC Timestamp value.
 355:Drivers/STM32F4xx_HAL_Driver/Src/stm32f4xx_hal_rtc_ex.c ****   * @param  hrtc pointer to a RTC_HandleTypeDef structure that contains
 356:Drivers/STM32F4xx_HAL_Driver/Src/stm32f4xx_hal_rtc_ex.c ****   *                the configuration information for RTC.
 357:Drivers/STM32F4xx_HAL_Driver/Src/stm32f4xx_hal_rtc_ex.c ****   * @param  sTimeStamp Pointer to Time structure
 358:Drivers/STM32F4xx_HAL_Driver/Src/stm32f4xx_hal_rtc_ex.c ****   * @param  sTimeStampDate Pointer to Date structure
 359:Drivers/STM32F4xx_HAL_Driver/Src/stm32f4xx_hal_rtc_ex.c ****   * @param  Format specifies the format of the entered parameters.
 360:Drivers/STM32F4xx_HAL_Driver/Src/stm32f4xx_hal_rtc_ex.c ****   *          This parameter can be one of the following values:
 361:Drivers/STM32F4xx_HAL_Driver/Src/stm32f4xx_hal_rtc_ex.c ****   *             @arg RTC_FORMAT_BIN: Binary data format
 362:Drivers/STM32F4xx_HAL_Driver/Src/stm32f4xx_hal_rtc_ex.c ****   *             @arg RTC_FORMAT_BCD: BCD data format
 363:Drivers/STM32F4xx_HAL_Driver/Src/stm32f4xx_hal_rtc_ex.c ****   * @retval HAL status
 364:Drivers/STM32F4xx_HAL_Driver/Src/stm32f4xx_hal_rtc_ex.c ****   */
 365:Drivers/STM32F4xx_HAL_Driver/Src/stm32f4xx_hal_rtc_ex.c **** HAL_StatusTypeDef HAL_RTCEx_GetTimeStamp(RTC_HandleTypeDef *hrtc, RTC_TimeTypeDef *sTimeStamp, RTC_
 366:Drivers/STM32F4xx_HAL_Driver/Src/stm32f4xx_hal_rtc_ex.c **** {
 402              		.loc 1 366 1 is_stmt 1 view -0
 403              		.cfi_startproc
 404              		@ args = 0, pretend = 0, frame = 0
 405              		@ frame_needed = 0, uses_anonymous_args = 0
 406              		.loc 1 366 1 is_stmt 0 view .LVU136
 407 0000 70B5     		push	{r4, r5, r6, lr}
 408              		.cfi_def_cfa_offset 16
 409              		.cfi_offset 4, -16
 410              		.cfi_offset 5, -12
 411              		.cfi_offset 6, -8
 412              		.cfi_offset 14, -4
 413 0002 0646     		mov	r6, r0
 414 0004 0C46     		mov	r4, r1
 415 0006 1546     		mov	r5, r2
 367:Drivers/STM32F4xx_HAL_Driver/Src/stm32f4xx_hal_rtc_ex.c ****   uint32_t tmptime = 0U;
 416              		.loc 1 367 3 is_stmt 1 view .LVU137
 417              	.LVL26:
 368:Drivers/STM32F4xx_HAL_Driver/Src/stm32f4xx_hal_rtc_ex.c ****   uint32_t tmpdate = 0U;
 418              		.loc 1 368 3 view .LVU138
 369:Drivers/STM32F4xx_HAL_Driver/Src/stm32f4xx_hal_rtc_ex.c **** 
 370:Drivers/STM32F4xx_HAL_Driver/Src/stm32f4xx_hal_rtc_ex.c ****   /* Check the parameters */
 371:Drivers/STM32F4xx_HAL_Driver/Src/stm32f4xx_hal_rtc_ex.c ****   assert_param(IS_RTC_FORMAT(Format));
 419              		.loc 1 371 3 view .LVU139
 372:Drivers/STM32F4xx_HAL_Driver/Src/stm32f4xx_hal_rtc_ex.c **** 
 373:Drivers/STM32F4xx_HAL_Driver/Src/stm32f4xx_hal_rtc_ex.c ****   /* Get the Timestamp time and date registers values */
 374:Drivers/STM32F4xx_HAL_Driver/Src/stm32f4xx_hal_rtc_ex.c ****   tmptime = (uint32_t)(hrtc->Instance->TSTR & RTC_TR_RESERVED_MASK);
 420              		.loc 1 374 3 view .LVU140
 421              		.loc 1 374 28 is_stmt 0 view .LVU141
 422 0008 0168     		ldr	r1, [r0]
 423              	.LVL27:
 424              		.loc 1 374 38 view .LVU142
 425 000a 0A6B     		ldr	r2, [r1, #48]
 426              	.LVL28:
ARM GAS  /tmp/cckJJ7Hn.s 			page 15


 375:Drivers/STM32F4xx_HAL_Driver/Src/stm32f4xx_hal_rtc_ex.c ****   tmpdate = (uint32_t)(hrtc->Instance->TSDR & RTC_DR_RESERVED_MASK);
 427              		.loc 1 375 3 is_stmt 1 view .LVU143
 428              		.loc 1 375 38 is_stmt 0 view .LVU144
 429 000c 496B     		ldr	r1, [r1, #52]
 430              	.LVL29:
 376:Drivers/STM32F4xx_HAL_Driver/Src/stm32f4xx_hal_rtc_ex.c **** 
 377:Drivers/STM32F4xx_HAL_Driver/Src/stm32f4xx_hal_rtc_ex.c ****   /* Fill the Time structure fields with the read parameters */
 378:Drivers/STM32F4xx_HAL_Driver/Src/stm32f4xx_hal_rtc_ex.c ****   sTimeStamp->Hours      = (uint8_t)((tmptime & (RTC_TSTR_HT  | RTC_TSTR_HU))  >> RTC_TSTR_HU_Pos);
 431              		.loc 1 378 3 is_stmt 1 view .LVU145
 432              		.loc 1 378 28 is_stmt 0 view .LVU146
 433 000e C2F30540 		ubfx	r0, r2, #16, #6
 434              	.LVL30:
 435              		.loc 1 378 26 view .LVU147
 436 0012 2070     		strb	r0, [r4]
 379:Drivers/STM32F4xx_HAL_Driver/Src/stm32f4xx_hal_rtc_ex.c ****   sTimeStamp->Minutes    = (uint8_t)((tmptime & (RTC_TSTR_MNT | RTC_TSTR_MNU)) >> RTC_TSTR_MNU_Pos)
 437              		.loc 1 379 3 is_stmt 1 view .LVU148
 438              		.loc 1 379 28 is_stmt 0 view .LVU149
 439 0014 C2F30620 		ubfx	r0, r2, #8, #7
 440              		.loc 1 379 26 view .LVU150
 441 0018 6070     		strb	r0, [r4, #1]
 380:Drivers/STM32F4xx_HAL_Driver/Src/stm32f4xx_hal_rtc_ex.c ****   sTimeStamp->Seconds    = (uint8_t)((tmptime & (RTC_TSTR_ST  | RTC_TSTR_SU))  >> RTC_TSTR_SU_Pos);
 442              		.loc 1 380 3 is_stmt 1 view .LVU151
 443              		.loc 1 380 28 is_stmt 0 view .LVU152
 444 001a 02F07F00 		and	r0, r2, #127
 445              		.loc 1 380 26 view .LVU153
 446 001e A070     		strb	r0, [r4, #2]
 381:Drivers/STM32F4xx_HAL_Driver/Src/stm32f4xx_hal_rtc_ex.c ****   sTimeStamp->TimeFormat = (uint8_t)((tmptime & (RTC_TSTR_PM))                 >> RTC_TSTR_PM_Pos);
 447              		.loc 1 381 3 is_stmt 1 view .LVU154
 448              		.loc 1 381 28 is_stmt 0 view .LVU155
 449 0020 C2F38052 		ubfx	r2, r2, #22, #1
 450              	.LVL31:
 451              		.loc 1 381 26 view .LVU156
 452 0024 E270     		strb	r2, [r4, #3]
 382:Drivers/STM32F4xx_HAL_Driver/Src/stm32f4xx_hal_rtc_ex.c ****   sTimeStamp->SubSeconds = (uint32_t) hrtc->Instance->TSSSR;
 453              		.loc 1 382 3 is_stmt 1 view .LVU157
 454              		.loc 1 382 43 is_stmt 0 view .LVU158
 455 0026 3268     		ldr	r2, [r6]
 456              		.loc 1 382 53 view .LVU159
 457 0028 926B     		ldr	r2, [r2, #56]
 458              		.loc 1 382 26 view .LVU160
 459 002a 6260     		str	r2, [r4, #4]
 383:Drivers/STM32F4xx_HAL_Driver/Src/stm32f4xx_hal_rtc_ex.c **** 
 384:Drivers/STM32F4xx_HAL_Driver/Src/stm32f4xx_hal_rtc_ex.c ****   /* Fill the Date structure fields with the read parameters */
 385:Drivers/STM32F4xx_HAL_Driver/Src/stm32f4xx_hal_rtc_ex.c ****   sTimeStampDate->Year    = 0U;
 460              		.loc 1 385 3 is_stmt 1 view .LVU161
 461              		.loc 1 385 27 is_stmt 0 view .LVU162
 462 002c 0022     		movs	r2, #0
 463 002e EA70     		strb	r2, [r5, #3]
 386:Drivers/STM32F4xx_HAL_Driver/Src/stm32f4xx_hal_rtc_ex.c ****   sTimeStampDate->Month   = (uint8_t)((tmpdate & (RTC_TSDR_MT | RTC_TSDR_MU)) >> RTC_TSDR_MU_Pos);
 464              		.loc 1 386 3 is_stmt 1 view .LVU163
 465              		.loc 1 386 29 is_stmt 0 view .LVU164
 466 0030 C1F30422 		ubfx	r2, r1, #8, #5
 467              		.loc 1 386 27 view .LVU165
 468 0034 6A70     		strb	r2, [r5, #1]
 387:Drivers/STM32F4xx_HAL_Driver/Src/stm32f4xx_hal_rtc_ex.c ****   sTimeStampDate->Date    = (uint8_t)((tmpdate & (RTC_TSDR_DT | RTC_TSDR_DU)) >> RTC_TSDR_DU_Pos);
 469              		.loc 1 387 3 is_stmt 1 view .LVU166
 470              		.loc 1 387 29 is_stmt 0 view .LVU167
ARM GAS  /tmp/cckJJ7Hn.s 			page 16


 471 0036 01F03F02 		and	r2, r1, #63
 472              		.loc 1 387 27 view .LVU168
 473 003a AA70     		strb	r2, [r5, #2]
 388:Drivers/STM32F4xx_HAL_Driver/Src/stm32f4xx_hal_rtc_ex.c ****   sTimeStampDate->WeekDay = (uint8_t)((tmpdate & (RTC_TSDR_WDU))              >> RTC_TSDR_WDU_Pos);
 474              		.loc 1 388 3 is_stmt 1 view .LVU169
 475              		.loc 1 388 29 is_stmt 0 view .LVU170
 476 003c C1F34231 		ubfx	r1, r1, #13, #3
 477              	.LVL32:
 478              		.loc 1 388 27 view .LVU171
 479 0040 2970     		strb	r1, [r5]
 389:Drivers/STM32F4xx_HAL_Driver/Src/stm32f4xx_hal_rtc_ex.c **** 
 390:Drivers/STM32F4xx_HAL_Driver/Src/stm32f4xx_hal_rtc_ex.c ****   /* Check the input parameters format */
 391:Drivers/STM32F4xx_HAL_Driver/Src/stm32f4xx_hal_rtc_ex.c ****   if (Format == RTC_FORMAT_BIN)
 480              		.loc 1 391 3 is_stmt 1 view .LVU172
 481              		.loc 1 391 6 is_stmt 0 view .LVU173
 482 0042 3BB1     		cbz	r3, .L23
 483              	.LVL33:
 484              	.L21:
 392:Drivers/STM32F4xx_HAL_Driver/Src/stm32f4xx_hal_rtc_ex.c ****   {
 393:Drivers/STM32F4xx_HAL_Driver/Src/stm32f4xx_hal_rtc_ex.c ****     /* Convert the Timestamp structure parameters to Binary format */
 394:Drivers/STM32F4xx_HAL_Driver/Src/stm32f4xx_hal_rtc_ex.c ****     sTimeStamp->Hours   = (uint8_t)RTC_Bcd2ToByte(sTimeStamp->Hours);
 395:Drivers/STM32F4xx_HAL_Driver/Src/stm32f4xx_hal_rtc_ex.c ****     sTimeStamp->Minutes = (uint8_t)RTC_Bcd2ToByte(sTimeStamp->Minutes);
 396:Drivers/STM32F4xx_HAL_Driver/Src/stm32f4xx_hal_rtc_ex.c ****     sTimeStamp->Seconds = (uint8_t)RTC_Bcd2ToByte(sTimeStamp->Seconds);
 397:Drivers/STM32F4xx_HAL_Driver/Src/stm32f4xx_hal_rtc_ex.c **** 
 398:Drivers/STM32F4xx_HAL_Driver/Src/stm32f4xx_hal_rtc_ex.c ****     /* Convert the DateTimeStamp structure parameters to Binary format */
 399:Drivers/STM32F4xx_HAL_Driver/Src/stm32f4xx_hal_rtc_ex.c ****     sTimeStampDate->Month   = (uint8_t)RTC_Bcd2ToByte(sTimeStampDate->Month);
 400:Drivers/STM32F4xx_HAL_Driver/Src/stm32f4xx_hal_rtc_ex.c ****     sTimeStampDate->Date    = (uint8_t)RTC_Bcd2ToByte(sTimeStampDate->Date);
 401:Drivers/STM32F4xx_HAL_Driver/Src/stm32f4xx_hal_rtc_ex.c ****     sTimeStampDate->WeekDay = (uint8_t)RTC_Bcd2ToByte(sTimeStampDate->WeekDay);
 402:Drivers/STM32F4xx_HAL_Driver/Src/stm32f4xx_hal_rtc_ex.c ****   }
 403:Drivers/STM32F4xx_HAL_Driver/Src/stm32f4xx_hal_rtc_ex.c **** 
 404:Drivers/STM32F4xx_HAL_Driver/Src/stm32f4xx_hal_rtc_ex.c ****   /* Clear the Timestamp Flag */
 405:Drivers/STM32F4xx_HAL_Driver/Src/stm32f4xx_hal_rtc_ex.c ****   __HAL_RTC_TIMESTAMP_CLEAR_FLAG(hrtc, RTC_FLAG_TSF);
 485              		.loc 1 405 3 is_stmt 1 view .LVU174
 486 0044 3268     		ldr	r2, [r6]
 487 0046 D368     		ldr	r3, [r2, #12]
 488 0048 DBB2     		uxtb	r3, r3
 489 004a 63F40863 		orn	r3, r3, #2176
 490 004e D360     		str	r3, [r2, #12]
 406:Drivers/STM32F4xx_HAL_Driver/Src/stm32f4xx_hal_rtc_ex.c **** 
 407:Drivers/STM32F4xx_HAL_Driver/Src/stm32f4xx_hal_rtc_ex.c ****   return HAL_OK;
 491              		.loc 1 407 3 view .LVU175
 408:Drivers/STM32F4xx_HAL_Driver/Src/stm32f4xx_hal_rtc_ex.c **** }
 492              		.loc 1 408 1 is_stmt 0 view .LVU176
 493 0050 0020     		movs	r0, #0
 494 0052 70BD     		pop	{r4, r5, r6, pc}
 495              	.LVL34:
 496              	.L23:
 394:Drivers/STM32F4xx_HAL_Driver/Src/stm32f4xx_hal_rtc_ex.c ****     sTimeStamp->Minutes = (uint8_t)RTC_Bcd2ToByte(sTimeStamp->Minutes);
 497              		.loc 1 394 5 is_stmt 1 view .LVU177
 394:Drivers/STM32F4xx_HAL_Driver/Src/stm32f4xx_hal_rtc_ex.c ****     sTimeStamp->Minutes = (uint8_t)RTC_Bcd2ToByte(sTimeStamp->Minutes);
 498              		.loc 1 394 36 is_stmt 0 view .LVU178
 499 0054 2078     		ldrb	r0, [r4]	@ zero_extendqisi2
 500 0056 FFF7FEFF 		bl	RTC_Bcd2ToByte
 501              	.LVL35:
 394:Drivers/STM32F4xx_HAL_Driver/Src/stm32f4xx_hal_rtc_ex.c ****     sTimeStamp->Minutes = (uint8_t)RTC_Bcd2ToByte(sTimeStamp->Minutes);
 502              		.loc 1 394 25 view .LVU179
 503 005a 2070     		strb	r0, [r4]
ARM GAS  /tmp/cckJJ7Hn.s 			page 17


 395:Drivers/STM32F4xx_HAL_Driver/Src/stm32f4xx_hal_rtc_ex.c ****     sTimeStamp->Seconds = (uint8_t)RTC_Bcd2ToByte(sTimeStamp->Seconds);
 504              		.loc 1 395 5 is_stmt 1 view .LVU180
 395:Drivers/STM32F4xx_HAL_Driver/Src/stm32f4xx_hal_rtc_ex.c ****     sTimeStamp->Seconds = (uint8_t)RTC_Bcd2ToByte(sTimeStamp->Seconds);
 505              		.loc 1 395 36 is_stmt 0 view .LVU181
 506 005c 6078     		ldrb	r0, [r4, #1]	@ zero_extendqisi2
 507 005e FFF7FEFF 		bl	RTC_Bcd2ToByte
 508              	.LVL36:
 395:Drivers/STM32F4xx_HAL_Driver/Src/stm32f4xx_hal_rtc_ex.c ****     sTimeStamp->Seconds = (uint8_t)RTC_Bcd2ToByte(sTimeStamp->Seconds);
 509              		.loc 1 395 25 view .LVU182
 510 0062 6070     		strb	r0, [r4, #1]
 396:Drivers/STM32F4xx_HAL_Driver/Src/stm32f4xx_hal_rtc_ex.c **** 
 511              		.loc 1 396 5 is_stmt 1 view .LVU183
 396:Drivers/STM32F4xx_HAL_Driver/Src/stm32f4xx_hal_rtc_ex.c **** 
 512              		.loc 1 396 36 is_stmt 0 view .LVU184
 513 0064 A078     		ldrb	r0, [r4, #2]	@ zero_extendqisi2
 514 0066 FFF7FEFF 		bl	RTC_Bcd2ToByte
 515              	.LVL37:
 396:Drivers/STM32F4xx_HAL_Driver/Src/stm32f4xx_hal_rtc_ex.c **** 
 516              		.loc 1 396 25 view .LVU185
 517 006a A070     		strb	r0, [r4, #2]
 399:Drivers/STM32F4xx_HAL_Driver/Src/stm32f4xx_hal_rtc_ex.c ****     sTimeStampDate->Date    = (uint8_t)RTC_Bcd2ToByte(sTimeStampDate->Date);
 518              		.loc 1 399 5 is_stmt 1 view .LVU186
 399:Drivers/STM32F4xx_HAL_Driver/Src/stm32f4xx_hal_rtc_ex.c ****     sTimeStampDate->Date    = (uint8_t)RTC_Bcd2ToByte(sTimeStampDate->Date);
 519              		.loc 1 399 40 is_stmt 0 view .LVU187
 520 006c 6878     		ldrb	r0, [r5, #1]	@ zero_extendqisi2
 521 006e FFF7FEFF 		bl	RTC_Bcd2ToByte
 522              	.LVL38:
 399:Drivers/STM32F4xx_HAL_Driver/Src/stm32f4xx_hal_rtc_ex.c ****     sTimeStampDate->Date    = (uint8_t)RTC_Bcd2ToByte(sTimeStampDate->Date);
 523              		.loc 1 399 29 view .LVU188
 524 0072 6870     		strb	r0, [r5, #1]
 400:Drivers/STM32F4xx_HAL_Driver/Src/stm32f4xx_hal_rtc_ex.c ****     sTimeStampDate->WeekDay = (uint8_t)RTC_Bcd2ToByte(sTimeStampDate->WeekDay);
 525              		.loc 1 400 5 is_stmt 1 view .LVU189
 400:Drivers/STM32F4xx_HAL_Driver/Src/stm32f4xx_hal_rtc_ex.c ****     sTimeStampDate->WeekDay = (uint8_t)RTC_Bcd2ToByte(sTimeStampDate->WeekDay);
 526              		.loc 1 400 40 is_stmt 0 view .LVU190
 527 0074 A878     		ldrb	r0, [r5, #2]	@ zero_extendqisi2
 528 0076 FFF7FEFF 		bl	RTC_Bcd2ToByte
 529              	.LVL39:
 400:Drivers/STM32F4xx_HAL_Driver/Src/stm32f4xx_hal_rtc_ex.c ****     sTimeStampDate->WeekDay = (uint8_t)RTC_Bcd2ToByte(sTimeStampDate->WeekDay);
 530              		.loc 1 400 29 view .LVU191
 531 007a A870     		strb	r0, [r5, #2]
 401:Drivers/STM32F4xx_HAL_Driver/Src/stm32f4xx_hal_rtc_ex.c ****   }
 532              		.loc 1 401 5 is_stmt 1 view .LVU192
 401:Drivers/STM32F4xx_HAL_Driver/Src/stm32f4xx_hal_rtc_ex.c ****   }
 533              		.loc 1 401 40 is_stmt 0 view .LVU193
 534 007c 2878     		ldrb	r0, [r5]	@ zero_extendqisi2
 535 007e FFF7FEFF 		bl	RTC_Bcd2ToByte
 536              	.LVL40:
 401:Drivers/STM32F4xx_HAL_Driver/Src/stm32f4xx_hal_rtc_ex.c ****   }
 537              		.loc 1 401 29 view .LVU194
 538 0082 2870     		strb	r0, [r5]
 539 0084 DEE7     		b	.L21
 540              		.cfi_endproc
 541              	.LFE133:
 543              		.section	.text.HAL_RTCEx_SetTamper,"ax",%progbits
 544              		.align	1
 545              		.global	HAL_RTCEx_SetTamper
 546              		.syntax unified
ARM GAS  /tmp/cckJJ7Hn.s 			page 18


 547              		.thumb
 548              		.thumb_func
 550              	HAL_RTCEx_SetTamper:
 551              	.LVL41:
 552              	.LFB134:
 409:Drivers/STM32F4xx_HAL_Driver/Src/stm32f4xx_hal_rtc_ex.c **** 
 410:Drivers/STM32F4xx_HAL_Driver/Src/stm32f4xx_hal_rtc_ex.c **** /**
 411:Drivers/STM32F4xx_HAL_Driver/Src/stm32f4xx_hal_rtc_ex.c ****   * @brief  Sets Tamper.
 412:Drivers/STM32F4xx_HAL_Driver/Src/stm32f4xx_hal_rtc_ex.c ****   * @note   By calling this API the tamper global interrupt will be disabled.
 413:Drivers/STM32F4xx_HAL_Driver/Src/stm32f4xx_hal_rtc_ex.c ****   * @param  hrtc pointer to a RTC_HandleTypeDef structure that contains
 414:Drivers/STM32F4xx_HAL_Driver/Src/stm32f4xx_hal_rtc_ex.c ****   *                the configuration information for RTC.
 415:Drivers/STM32F4xx_HAL_Driver/Src/stm32f4xx_hal_rtc_ex.c ****   * @param  sTamper Pointer to Tamper Structure.
 416:Drivers/STM32F4xx_HAL_Driver/Src/stm32f4xx_hal_rtc_ex.c ****   * @retval HAL status
 417:Drivers/STM32F4xx_HAL_Driver/Src/stm32f4xx_hal_rtc_ex.c ****   */
 418:Drivers/STM32F4xx_HAL_Driver/Src/stm32f4xx_hal_rtc_ex.c **** HAL_StatusTypeDef HAL_RTCEx_SetTamper(RTC_HandleTypeDef *hrtc, RTC_TamperTypeDef *sTamper)
 419:Drivers/STM32F4xx_HAL_Driver/Src/stm32f4xx_hal_rtc_ex.c **** {
 553              		.loc 1 419 1 is_stmt 1 view -0
 554              		.cfi_startproc
 555              		@ args = 0, pretend = 0, frame = 0
 556              		@ frame_needed = 0, uses_anonymous_args = 0
 557              		@ link register save eliminated.
 420:Drivers/STM32F4xx_HAL_Driver/Src/stm32f4xx_hal_rtc_ex.c ****   uint32_t tmpreg = 0U;
 558              		.loc 1 420 3 view .LVU196
 421:Drivers/STM32F4xx_HAL_Driver/Src/stm32f4xx_hal_rtc_ex.c **** 
 422:Drivers/STM32F4xx_HAL_Driver/Src/stm32f4xx_hal_rtc_ex.c ****   /* Check the parameters */
 423:Drivers/STM32F4xx_HAL_Driver/Src/stm32f4xx_hal_rtc_ex.c ****   assert_param(IS_RTC_TAMPER(sTamper->Tamper));
 559              		.loc 1 423 3 view .LVU197
 424:Drivers/STM32F4xx_HAL_Driver/Src/stm32f4xx_hal_rtc_ex.c ****   assert_param(IS_RTC_TAMPER_PIN(sTamper->PinSelection));
 560              		.loc 1 424 3 view .LVU198
 425:Drivers/STM32F4xx_HAL_Driver/Src/stm32f4xx_hal_rtc_ex.c ****   assert_param(IS_RTC_TAMPER_TRIGGER(sTamper->Trigger));
 561              		.loc 1 425 3 view .LVU199
 426:Drivers/STM32F4xx_HAL_Driver/Src/stm32f4xx_hal_rtc_ex.c ****   assert_param(IS_RTC_TAMPER_FILTER(sTamper->Filter));
 562              		.loc 1 426 3 view .LVU200
 427:Drivers/STM32F4xx_HAL_Driver/Src/stm32f4xx_hal_rtc_ex.c ****   assert_param(IS_RTC_TAMPER_FILTER_CONFIG_CORRECT(sTamper->Filter, sTamper->Trigger));
 563              		.loc 1 427 3 view .LVU201
 428:Drivers/STM32F4xx_HAL_Driver/Src/stm32f4xx_hal_rtc_ex.c ****   assert_param(IS_RTC_TAMPER_SAMPLING_FREQ(sTamper->SamplingFrequency));
 564              		.loc 1 428 3 view .LVU202
 429:Drivers/STM32F4xx_HAL_Driver/Src/stm32f4xx_hal_rtc_ex.c ****   assert_param(IS_RTC_TAMPER_PRECHARGE_DURATION(sTamper->PrechargeDuration));
 565              		.loc 1 429 3 view .LVU203
 430:Drivers/STM32F4xx_HAL_Driver/Src/stm32f4xx_hal_rtc_ex.c ****   assert_param(IS_RTC_TAMPER_PULLUP_STATE(sTamper->TamperPullUp));
 566              		.loc 1 430 3 view .LVU204
 431:Drivers/STM32F4xx_HAL_Driver/Src/stm32f4xx_hal_rtc_ex.c ****   assert_param(IS_RTC_TAMPER_TIMESTAMPONTAMPER_DETECTION(sTamper->TimeStampOnTamperDetection));
 567              		.loc 1 431 3 view .LVU205
 432:Drivers/STM32F4xx_HAL_Driver/Src/stm32f4xx_hal_rtc_ex.c **** 
 433:Drivers/STM32F4xx_HAL_Driver/Src/stm32f4xx_hal_rtc_ex.c ****   /* Process Locked */
 434:Drivers/STM32F4xx_HAL_Driver/Src/stm32f4xx_hal_rtc_ex.c ****   __HAL_LOCK(hrtc);
 568              		.loc 1 434 3 view .LVU206
 569              		.loc 1 434 3 view .LVU207
 570 0000 037F     		ldrb	r3, [r0, #28]	@ zero_extendqisi2
 571 0002 012B     		cmp	r3, #1
 572 0004 2AD0     		beq	.L28
 419:Drivers/STM32F4xx_HAL_Driver/Src/stm32f4xx_hal_rtc_ex.c ****   uint32_t tmpreg = 0U;
 573              		.loc 1 419 1 is_stmt 0 discriminator 2 view .LVU208
 574 0006 30B4     		push	{r4, r5}
 575              		.cfi_def_cfa_offset 8
 576              		.cfi_offset 4, -8
 577              		.cfi_offset 5, -4
ARM GAS  /tmp/cckJJ7Hn.s 			page 19


 578              		.loc 1 434 3 is_stmt 1 discriminator 2 view .LVU209
 579 0008 0123     		movs	r3, #1
 580 000a 0377     		strb	r3, [r0, #28]
 581              		.loc 1 434 3 discriminator 2 view .LVU210
 435:Drivers/STM32F4xx_HAL_Driver/Src/stm32f4xx_hal_rtc_ex.c **** 
 436:Drivers/STM32F4xx_HAL_Driver/Src/stm32f4xx_hal_rtc_ex.c ****   hrtc->State = HAL_RTC_STATE_BUSY;
 582              		.loc 1 436 3 discriminator 2 view .LVU211
 583              		.loc 1 436 15 is_stmt 0 discriminator 2 view .LVU212
 584 000c 0223     		movs	r3, #2
 585 000e 4377     		strb	r3, [r0, #29]
 437:Drivers/STM32F4xx_HAL_Driver/Src/stm32f4xx_hal_rtc_ex.c **** 
 438:Drivers/STM32F4xx_HAL_Driver/Src/stm32f4xx_hal_rtc_ex.c ****   /* Copy control register into temporary variable */
 439:Drivers/STM32F4xx_HAL_Driver/Src/stm32f4xx_hal_rtc_ex.c ****   tmpreg = hrtc->Instance->TAFCR;
 586              		.loc 1 439 3 is_stmt 1 discriminator 2 view .LVU213
 587              		.loc 1 439 16 is_stmt 0 discriminator 2 view .LVU214
 588 0010 0468     		ldr	r4, [r0]
 589              		.loc 1 439 10 discriminator 2 view .LVU215
 590 0012 226C     		ldr	r2, [r4, #64]
 591              	.LVL42:
 440:Drivers/STM32F4xx_HAL_Driver/Src/stm32f4xx_hal_rtc_ex.c **** 
 441:Drivers/STM32F4xx_HAL_Driver/Src/stm32f4xx_hal_rtc_ex.c ****   /* Enable selected tamper */
 442:Drivers/STM32F4xx_HAL_Driver/Src/stm32f4xx_hal_rtc_ex.c ****   tmpreg |= (sTamper->Tamper);
 592              		.loc 1 442 3 is_stmt 1 discriminator 2 view .LVU216
 593              		.loc 1 442 21 is_stmt 0 discriminator 2 view .LVU217
 594 0014 0B68     		ldr	r3, [r1]
 595              		.loc 1 442 10 discriminator 2 view .LVU218
 596 0016 1A43     		orrs	r2, r2, r3
 597              	.LVL43:
 443:Drivers/STM32F4xx_HAL_Driver/Src/stm32f4xx_hal_rtc_ex.c **** 
 444:Drivers/STM32F4xx_HAL_Driver/Src/stm32f4xx_hal_rtc_ex.c ****   /* Configure the tamper trigger bit (this bit is just on the right of the
 445:Drivers/STM32F4xx_HAL_Driver/Src/stm32f4xx_hal_rtc_ex.c ****        tamper enable bit, hence the one-time right shift before updating it) */
 446:Drivers/STM32F4xx_HAL_Driver/Src/stm32f4xx_hal_rtc_ex.c ****   if (sTamper->Trigger == RTC_TAMPERTRIGGER_FALLINGEDGE)
 598              		.loc 1 446 3 is_stmt 1 discriminator 2 view .LVU219
 599              		.loc 1 446 6 is_stmt 0 discriminator 2 view .LVU220
 600 0018 8D68     		ldr	r5, [r1, #8]
 601 001a 022D     		cmp	r5, #2
 602 001c 1BD0     		beq	.L33
 447:Drivers/STM32F4xx_HAL_Driver/Src/stm32f4xx_hal_rtc_ex.c ****   {
 448:Drivers/STM32F4xx_HAL_Driver/Src/stm32f4xx_hal_rtc_ex.c ****     /* Set the tamper trigger bit (case of falling edge or high level) */
 449:Drivers/STM32F4xx_HAL_Driver/Src/stm32f4xx_hal_rtc_ex.c ****     tmpreg |= (uint32_t)(sTamper->Tamper << 1U);
 450:Drivers/STM32F4xx_HAL_Driver/Src/stm32f4xx_hal_rtc_ex.c ****   }
 451:Drivers/STM32F4xx_HAL_Driver/Src/stm32f4xx_hal_rtc_ex.c ****   else
 452:Drivers/STM32F4xx_HAL_Driver/Src/stm32f4xx_hal_rtc_ex.c ****   {
 453:Drivers/STM32F4xx_HAL_Driver/Src/stm32f4xx_hal_rtc_ex.c ****     /* Clear the tamper trigger bit (case of rising edge or low level) */
 454:Drivers/STM32F4xx_HAL_Driver/Src/stm32f4xx_hal_rtc_ex.c ****     tmpreg &= (uint32_t)~(sTamper->Tamper << 1U);
 603              		.loc 1 454 5 is_stmt 1 view .LVU221
 604              		.loc 1 454 12 is_stmt 0 view .LVU222
 605 001e 22EA4303 		bic	r3, r2, r3, lsl #1
 606              	.LVL44:
 607              	.L27:
 455:Drivers/STM32F4xx_HAL_Driver/Src/stm32f4xx_hal_rtc_ex.c ****   }
 456:Drivers/STM32F4xx_HAL_Driver/Src/stm32f4xx_hal_rtc_ex.c **** 
 457:Drivers/STM32F4xx_HAL_Driver/Src/stm32f4xx_hal_rtc_ex.c ****   /* Clear remaining fields before setting them */
 458:Drivers/STM32F4xx_HAL_Driver/Src/stm32f4xx_hal_rtc_ex.c ****   tmpreg &= ~(RTC_TAMPERFILTER_MASK              | \
 608              		.loc 1 458 3 is_stmt 1 view .LVU223
 609              		.loc 1 458 10 is_stmt 0 view .LVU224
 610 0022 23F4FF32 		bic	r2, r3, #130560
ARM GAS  /tmp/cckJJ7Hn.s 			page 20


 611 0026 22F4C072 		bic	r2, r2, #384
 612              	.LVL45:
 459:Drivers/STM32F4xx_HAL_Driver/Src/stm32f4xx_hal_rtc_ex.c ****               RTC_TAMPERSAMPLINGFREQ_RTCCLK_MASK | \
 460:Drivers/STM32F4xx_HAL_Driver/Src/stm32f4xx_hal_rtc_ex.c ****               RTC_TAMPERPRECHARGEDURATION_MASK   | \
 461:Drivers/STM32F4xx_HAL_Driver/Src/stm32f4xx_hal_rtc_ex.c ****               RTC_TAMPER_PULLUP_MASK             | \
 462:Drivers/STM32F4xx_HAL_Driver/Src/stm32f4xx_hal_rtc_ex.c ****               RTC_TAFCR_TAMP1INSEL               | \
 463:Drivers/STM32F4xx_HAL_Driver/Src/stm32f4xx_hal_rtc_ex.c ****               RTC_TIMESTAMPONTAMPERDETECTION_MASK);
 464:Drivers/STM32F4xx_HAL_Driver/Src/stm32f4xx_hal_rtc_ex.c **** 
 465:Drivers/STM32F4xx_HAL_Driver/Src/stm32f4xx_hal_rtc_ex.c ****   /* Set remaining parameters of desired configuration into temporary variable */
 466:Drivers/STM32F4xx_HAL_Driver/Src/stm32f4xx_hal_rtc_ex.c ****   tmpreg |= ((uint32_t)sTamper->Filter            | \
 613              		.loc 1 466 3 is_stmt 1 view .LVU225
 614              		.loc 1 466 31 is_stmt 0 view .LVU226
 615 002a CB68     		ldr	r3, [r1, #12]
 616              		.loc 1 466 51 view .LVU227
 617 002c 0D69     		ldr	r5, [r1, #16]
 618 002e 2B43     		orrs	r3, r3, r5
 467:Drivers/STM32F4xx_HAL_Driver/Src/stm32f4xx_hal_rtc_ex.c ****              (uint32_t)sTamper->SamplingFrequency | \
 619              		.loc 1 467 51 view .LVU228
 620 0030 4D69     		ldr	r5, [r1, #20]
 621 0032 2B43     		orrs	r3, r3, r5
 468:Drivers/STM32F4xx_HAL_Driver/Src/stm32f4xx_hal_rtc_ex.c ****              (uint32_t)sTamper->PrechargeDuration | \
 622              		.loc 1 468 51 view .LVU229
 623 0034 8D69     		ldr	r5, [r1, #24]
 624 0036 2B43     		orrs	r3, r3, r5
 469:Drivers/STM32F4xx_HAL_Driver/Src/stm32f4xx_hal_rtc_ex.c ****              (uint32_t)sTamper->TamperPullUp      | \
 625              		.loc 1 469 51 view .LVU230
 626 0038 4D68     		ldr	r5, [r1, #4]
 627 003a 2B43     		orrs	r3, r3, r5
 470:Drivers/STM32F4xx_HAL_Driver/Src/stm32f4xx_hal_rtc_ex.c ****              (uint32_t)sTamper->PinSelection      | \
 471:Drivers/STM32F4xx_HAL_Driver/Src/stm32f4xx_hal_rtc_ex.c ****              (uint32_t)sTamper->TimeStampOnTamperDetection);
 628              		.loc 1 471 31 view .LVU231
 629 003c C969     		ldr	r1, [r1, #28]
 630              	.LVL46:
 470:Drivers/STM32F4xx_HAL_Driver/Src/stm32f4xx_hal_rtc_ex.c ****              (uint32_t)sTamper->PinSelection      | \
 631              		.loc 1 470 51 view .LVU232
 632 003e 0B43     		orrs	r3, r3, r1
 466:Drivers/STM32F4xx_HAL_Driver/Src/stm32f4xx_hal_rtc_ex.c ****              (uint32_t)sTamper->SamplingFrequency | \
 633              		.loc 1 466 10 view .LVU233
 634 0040 1343     		orrs	r3, r3, r2
 635              	.LVL47:
 472:Drivers/STM32F4xx_HAL_Driver/Src/stm32f4xx_hal_rtc_ex.c **** 
 473:Drivers/STM32F4xx_HAL_Driver/Src/stm32f4xx_hal_rtc_ex.c ****   /* Disable tamper global interrupt in case it is enabled */
 474:Drivers/STM32F4xx_HAL_Driver/Src/stm32f4xx_hal_rtc_ex.c ****   tmpreg &= (uint32_t)~RTC_TAFCR_TAMPIE;
 636              		.loc 1 474 3 is_stmt 1 view .LVU234
 637              		.loc 1 474 10 is_stmt 0 view .LVU235
 638 0042 23F00403 		bic	r3, r3, #4
 639              	.LVL48:
 475:Drivers/STM32F4xx_HAL_Driver/Src/stm32f4xx_hal_rtc_ex.c **** 
 476:Drivers/STM32F4xx_HAL_Driver/Src/stm32f4xx_hal_rtc_ex.c ****   /* Copy desired configuration into configuration register */
 477:Drivers/STM32F4xx_HAL_Driver/Src/stm32f4xx_hal_rtc_ex.c ****   hrtc->Instance->TAFCR = tmpreg;
 640              		.loc 1 477 3 is_stmt 1 view .LVU236
 641              		.loc 1 477 25 is_stmt 0 view .LVU237
 642 0046 2364     		str	r3, [r4, #64]
 478:Drivers/STM32F4xx_HAL_Driver/Src/stm32f4xx_hal_rtc_ex.c **** 
 479:Drivers/STM32F4xx_HAL_Driver/Src/stm32f4xx_hal_rtc_ex.c ****   hrtc->State = HAL_RTC_STATE_READY;
 643              		.loc 1 479 3 is_stmt 1 view .LVU238
 644              		.loc 1 479 15 is_stmt 0 view .LVU239
ARM GAS  /tmp/cckJJ7Hn.s 			page 21


 645 0048 0123     		movs	r3, #1
 646              	.LVL49:
 647              		.loc 1 479 15 view .LVU240
 648 004a 4377     		strb	r3, [r0, #29]
 649              	.LVL50:
 480:Drivers/STM32F4xx_HAL_Driver/Src/stm32f4xx_hal_rtc_ex.c **** 
 481:Drivers/STM32F4xx_HAL_Driver/Src/stm32f4xx_hal_rtc_ex.c ****   /* Process Unlocked */
 482:Drivers/STM32F4xx_HAL_Driver/Src/stm32f4xx_hal_rtc_ex.c ****   __HAL_UNLOCK(hrtc);
 650              		.loc 1 482 3 is_stmt 1 view .LVU241
 651              		.loc 1 482 3 view .LVU242
 652 004c 0023     		movs	r3, #0
 653 004e 0377     		strb	r3, [r0, #28]
 654              		.loc 1 482 3 view .LVU243
 483:Drivers/STM32F4xx_HAL_Driver/Src/stm32f4xx_hal_rtc_ex.c **** 
 484:Drivers/STM32F4xx_HAL_Driver/Src/stm32f4xx_hal_rtc_ex.c ****   return HAL_OK;
 655              		.loc 1 484 3 view .LVU244
 656              		.loc 1 484 10 is_stmt 0 view .LVU245
 657 0050 1846     		mov	r0, r3
 658              	.LVL51:
 485:Drivers/STM32F4xx_HAL_Driver/Src/stm32f4xx_hal_rtc_ex.c **** }
 659              		.loc 1 485 1 view .LVU246
 660 0052 30BC     		pop	{r4, r5}
 661              		.cfi_remember_state
 662              		.cfi_restore 5
 663              		.cfi_restore 4
 664              		.cfi_def_cfa_offset 0
 665 0054 7047     		bx	lr
 666              	.LVL52:
 667              	.L33:
 668              		.cfi_restore_state
 449:Drivers/STM32F4xx_HAL_Driver/Src/stm32f4xx_hal_rtc_ex.c ****   }
 669              		.loc 1 449 5 is_stmt 1 view .LVU247
 449:Drivers/STM32F4xx_HAL_Driver/Src/stm32f4xx_hal_rtc_ex.c ****   }
 670              		.loc 1 449 12 is_stmt 0 view .LVU248
 671 0056 42EA4303 		orr	r3, r2, r3, lsl #1
 672              	.LVL53:
 449:Drivers/STM32F4xx_HAL_Driver/Src/stm32f4xx_hal_rtc_ex.c ****   }
 673              		.loc 1 449 12 view .LVU249
 674 005a E2E7     		b	.L27
 675              	.LVL54:
 676              	.L28:
 677              		.cfi_def_cfa_offset 0
 678              		.cfi_restore 4
 679              		.cfi_restore 5
 434:Drivers/STM32F4xx_HAL_Driver/Src/stm32f4xx_hal_rtc_ex.c **** 
 680              		.loc 1 434 3 view .LVU250
 681 005c 0220     		movs	r0, #2
 682              	.LVL55:
 683              		.loc 1 485 1 view .LVU251
 684 005e 7047     		bx	lr
 685              		.cfi_endproc
 686              	.LFE134:
 688              		.section	.text.HAL_RTCEx_SetTamper_IT,"ax",%progbits
 689              		.align	1
 690              		.global	HAL_RTCEx_SetTamper_IT
 691              		.syntax unified
 692              		.thumb
ARM GAS  /tmp/cckJJ7Hn.s 			page 22


 693              		.thumb_func
 695              	HAL_RTCEx_SetTamper_IT:
 696              	.LVL56:
 697              	.LFB135:
 486:Drivers/STM32F4xx_HAL_Driver/Src/stm32f4xx_hal_rtc_ex.c **** 
 487:Drivers/STM32F4xx_HAL_Driver/Src/stm32f4xx_hal_rtc_ex.c **** /**
 488:Drivers/STM32F4xx_HAL_Driver/Src/stm32f4xx_hal_rtc_ex.c ****   * @brief  Sets Tamper with interrupt.
 489:Drivers/STM32F4xx_HAL_Driver/Src/stm32f4xx_hal_rtc_ex.c ****   * @note   By calling this API the tamper global interrupt will be enabled.
 490:Drivers/STM32F4xx_HAL_Driver/Src/stm32f4xx_hal_rtc_ex.c ****   * @param  hrtc pointer to a RTC_HandleTypeDef structure that contains
 491:Drivers/STM32F4xx_HAL_Driver/Src/stm32f4xx_hal_rtc_ex.c ****   *                the configuration information for RTC.
 492:Drivers/STM32F4xx_HAL_Driver/Src/stm32f4xx_hal_rtc_ex.c ****   * @param  sTamper Pointer to RTC Tamper.
 493:Drivers/STM32F4xx_HAL_Driver/Src/stm32f4xx_hal_rtc_ex.c ****   * @retval HAL status
 494:Drivers/STM32F4xx_HAL_Driver/Src/stm32f4xx_hal_rtc_ex.c ****   */
 495:Drivers/STM32F4xx_HAL_Driver/Src/stm32f4xx_hal_rtc_ex.c **** HAL_StatusTypeDef HAL_RTCEx_SetTamper_IT(RTC_HandleTypeDef *hrtc, RTC_TamperTypeDef *sTamper)
 496:Drivers/STM32F4xx_HAL_Driver/Src/stm32f4xx_hal_rtc_ex.c **** {
 698              		.loc 1 496 1 is_stmt 1 view -0
 699              		.cfi_startproc
 700              		@ args = 0, pretend = 0, frame = 0
 701              		@ frame_needed = 0, uses_anonymous_args = 0
 702              		@ link register save eliminated.
 497:Drivers/STM32F4xx_HAL_Driver/Src/stm32f4xx_hal_rtc_ex.c ****   uint32_t tmpreg = 0U;
 703              		.loc 1 497 3 view .LVU253
 498:Drivers/STM32F4xx_HAL_Driver/Src/stm32f4xx_hal_rtc_ex.c **** 
 499:Drivers/STM32F4xx_HAL_Driver/Src/stm32f4xx_hal_rtc_ex.c ****   /* Check the parameters */
 500:Drivers/STM32F4xx_HAL_Driver/Src/stm32f4xx_hal_rtc_ex.c ****   assert_param(IS_RTC_TAMPER(sTamper->Tamper));
 704              		.loc 1 500 3 view .LVU254
 501:Drivers/STM32F4xx_HAL_Driver/Src/stm32f4xx_hal_rtc_ex.c ****   assert_param(IS_RTC_TAMPER_PIN(sTamper->PinSelection));
 705              		.loc 1 501 3 view .LVU255
 502:Drivers/STM32F4xx_HAL_Driver/Src/stm32f4xx_hal_rtc_ex.c ****   assert_param(IS_RTC_TAMPER_TRIGGER(sTamper->Trigger));
 706              		.loc 1 502 3 view .LVU256
 503:Drivers/STM32F4xx_HAL_Driver/Src/stm32f4xx_hal_rtc_ex.c ****   assert_param(IS_RTC_TAMPER_FILTER(sTamper->Filter));
 707              		.loc 1 503 3 view .LVU257
 504:Drivers/STM32F4xx_HAL_Driver/Src/stm32f4xx_hal_rtc_ex.c ****   assert_param(IS_RTC_TAMPER_FILTER_CONFIG_CORRECT(sTamper->Filter, sTamper->Trigger));
 708              		.loc 1 504 3 view .LVU258
 505:Drivers/STM32F4xx_HAL_Driver/Src/stm32f4xx_hal_rtc_ex.c ****   assert_param(IS_RTC_TAMPER_SAMPLING_FREQ(sTamper->SamplingFrequency));
 709              		.loc 1 505 3 view .LVU259
 506:Drivers/STM32F4xx_HAL_Driver/Src/stm32f4xx_hal_rtc_ex.c ****   assert_param(IS_RTC_TAMPER_PRECHARGE_DURATION(sTamper->PrechargeDuration));
 710              		.loc 1 506 3 view .LVU260
 507:Drivers/STM32F4xx_HAL_Driver/Src/stm32f4xx_hal_rtc_ex.c ****   assert_param(IS_RTC_TAMPER_PULLUP_STATE(sTamper->TamperPullUp));
 711              		.loc 1 507 3 view .LVU261
 508:Drivers/STM32F4xx_HAL_Driver/Src/stm32f4xx_hal_rtc_ex.c ****   assert_param(IS_RTC_TAMPER_TIMESTAMPONTAMPER_DETECTION(sTamper->TimeStampOnTamperDetection));
 712              		.loc 1 508 3 view .LVU262
 509:Drivers/STM32F4xx_HAL_Driver/Src/stm32f4xx_hal_rtc_ex.c **** 
 510:Drivers/STM32F4xx_HAL_Driver/Src/stm32f4xx_hal_rtc_ex.c ****   /* Process Locked */
 511:Drivers/STM32F4xx_HAL_Driver/Src/stm32f4xx_hal_rtc_ex.c ****   __HAL_LOCK(hrtc);
 713              		.loc 1 511 3 view .LVU263
 714              		.loc 1 511 3 view .LVU264
 715 0000 037F     		ldrb	r3, [r0, #28]	@ zero_extendqisi2
 716 0002 012B     		cmp	r3, #1
 717 0004 33D0     		beq	.L38
 496:Drivers/STM32F4xx_HAL_Driver/Src/stm32f4xx_hal_rtc_ex.c ****   uint32_t tmpreg = 0U;
 718              		.loc 1 496 1 is_stmt 0 discriminator 2 view .LVU265
 719 0006 30B4     		push	{r4, r5}
 720              		.cfi_def_cfa_offset 8
 721              		.cfi_offset 4, -8
 722              		.cfi_offset 5, -4
 723              		.loc 1 511 3 is_stmt 1 discriminator 2 view .LVU266
ARM GAS  /tmp/cckJJ7Hn.s 			page 23


 724 0008 0123     		movs	r3, #1
 725 000a 0377     		strb	r3, [r0, #28]
 726              		.loc 1 511 3 discriminator 2 view .LVU267
 512:Drivers/STM32F4xx_HAL_Driver/Src/stm32f4xx_hal_rtc_ex.c **** 
 513:Drivers/STM32F4xx_HAL_Driver/Src/stm32f4xx_hal_rtc_ex.c ****   hrtc->State = HAL_RTC_STATE_BUSY;
 727              		.loc 1 513 3 discriminator 2 view .LVU268
 728              		.loc 1 513 15 is_stmt 0 discriminator 2 view .LVU269
 729 000c 0223     		movs	r3, #2
 730 000e 4377     		strb	r3, [r0, #29]
 514:Drivers/STM32F4xx_HAL_Driver/Src/stm32f4xx_hal_rtc_ex.c **** 
 515:Drivers/STM32F4xx_HAL_Driver/Src/stm32f4xx_hal_rtc_ex.c ****   /* Copy control register into temporary variable */
 516:Drivers/STM32F4xx_HAL_Driver/Src/stm32f4xx_hal_rtc_ex.c ****   tmpreg = hrtc->Instance->TAFCR;
 731              		.loc 1 516 3 is_stmt 1 discriminator 2 view .LVU270
 732              		.loc 1 516 16 is_stmt 0 discriminator 2 view .LVU271
 733 0010 0468     		ldr	r4, [r0]
 734              		.loc 1 516 10 discriminator 2 view .LVU272
 735 0012 226C     		ldr	r2, [r4, #64]
 736              	.LVL57:
 517:Drivers/STM32F4xx_HAL_Driver/Src/stm32f4xx_hal_rtc_ex.c **** 
 518:Drivers/STM32F4xx_HAL_Driver/Src/stm32f4xx_hal_rtc_ex.c ****   /* Enable selected tamper */
 519:Drivers/STM32F4xx_HAL_Driver/Src/stm32f4xx_hal_rtc_ex.c ****   tmpreg |= (sTamper->Tamper);
 737              		.loc 1 519 3 is_stmt 1 discriminator 2 view .LVU273
 738              		.loc 1 519 21 is_stmt 0 discriminator 2 view .LVU274
 739 0014 0B68     		ldr	r3, [r1]
 740              		.loc 1 519 10 discriminator 2 view .LVU275
 741 0016 1A43     		orrs	r2, r2, r3
 742              	.LVL58:
 520:Drivers/STM32F4xx_HAL_Driver/Src/stm32f4xx_hal_rtc_ex.c **** 
 521:Drivers/STM32F4xx_HAL_Driver/Src/stm32f4xx_hal_rtc_ex.c ****   /* Configure the tamper trigger bit (this bit is just on the right of the
 522:Drivers/STM32F4xx_HAL_Driver/Src/stm32f4xx_hal_rtc_ex.c ****        tamper enable bit, hence the one-time right shift before updating it) */
 523:Drivers/STM32F4xx_HAL_Driver/Src/stm32f4xx_hal_rtc_ex.c ****   if (sTamper->Trigger == RTC_TAMPERTRIGGER_FALLINGEDGE)
 743              		.loc 1 523 3 is_stmt 1 discriminator 2 view .LVU276
 744              		.loc 1 523 6 is_stmt 0 discriminator 2 view .LVU277
 745 0018 8D68     		ldr	r5, [r1, #8]
 746 001a 022D     		cmp	r5, #2
 747 001c 24D0     		beq	.L43
 524:Drivers/STM32F4xx_HAL_Driver/Src/stm32f4xx_hal_rtc_ex.c ****   {
 525:Drivers/STM32F4xx_HAL_Driver/Src/stm32f4xx_hal_rtc_ex.c ****     /* Set the tamper trigger bit (case of falling edge or high level) */
 526:Drivers/STM32F4xx_HAL_Driver/Src/stm32f4xx_hal_rtc_ex.c ****     tmpreg |= (uint32_t)(sTamper->Tamper << 1U);
 527:Drivers/STM32F4xx_HAL_Driver/Src/stm32f4xx_hal_rtc_ex.c ****   }
 528:Drivers/STM32F4xx_HAL_Driver/Src/stm32f4xx_hal_rtc_ex.c ****   else
 529:Drivers/STM32F4xx_HAL_Driver/Src/stm32f4xx_hal_rtc_ex.c ****   {
 530:Drivers/STM32F4xx_HAL_Driver/Src/stm32f4xx_hal_rtc_ex.c ****     /* Clear the tamper trigger bit (case of rising edge or low level) */
 531:Drivers/STM32F4xx_HAL_Driver/Src/stm32f4xx_hal_rtc_ex.c ****     tmpreg &= (uint32_t)~(sTamper->Tamper << 1U);
 748              		.loc 1 531 5 is_stmt 1 view .LVU278
 749              		.loc 1 531 12 is_stmt 0 view .LVU279
 750 001e 22EA4303 		bic	r3, r2, r3, lsl #1
 751              	.LVL59:
 752              	.L37:
 532:Drivers/STM32F4xx_HAL_Driver/Src/stm32f4xx_hal_rtc_ex.c ****   }
 533:Drivers/STM32F4xx_HAL_Driver/Src/stm32f4xx_hal_rtc_ex.c **** 
 534:Drivers/STM32F4xx_HAL_Driver/Src/stm32f4xx_hal_rtc_ex.c ****   /* Clear remaining fields before setting them */
 535:Drivers/STM32F4xx_HAL_Driver/Src/stm32f4xx_hal_rtc_ex.c ****   tmpreg &= ~(RTC_TAMPERFILTER_MASK              | \
 753              		.loc 1 535 3 is_stmt 1 view .LVU280
 754              		.loc 1 535 10 is_stmt 0 view .LVU281
 755 0022 23F4FF32 		bic	r2, r3, #130560
 756 0026 22F4C072 		bic	r2, r2, #384
ARM GAS  /tmp/cckJJ7Hn.s 			page 24


 757              	.LVL60:
 536:Drivers/STM32F4xx_HAL_Driver/Src/stm32f4xx_hal_rtc_ex.c ****               RTC_TAMPERSAMPLINGFREQ_RTCCLK_MASK | \
 537:Drivers/STM32F4xx_HAL_Driver/Src/stm32f4xx_hal_rtc_ex.c ****               RTC_TAMPERPRECHARGEDURATION_MASK   | \
 538:Drivers/STM32F4xx_HAL_Driver/Src/stm32f4xx_hal_rtc_ex.c ****               RTC_TAMPER_PULLUP_MASK             | \
 539:Drivers/STM32F4xx_HAL_Driver/Src/stm32f4xx_hal_rtc_ex.c ****               RTC_TAFCR_TAMP1INSEL               | \
 540:Drivers/STM32F4xx_HAL_Driver/Src/stm32f4xx_hal_rtc_ex.c ****               RTC_TIMESTAMPONTAMPERDETECTION_MASK);
 541:Drivers/STM32F4xx_HAL_Driver/Src/stm32f4xx_hal_rtc_ex.c **** 
 542:Drivers/STM32F4xx_HAL_Driver/Src/stm32f4xx_hal_rtc_ex.c ****   /* Set remaining parameters of desired configuration into temporary variable */
 543:Drivers/STM32F4xx_HAL_Driver/Src/stm32f4xx_hal_rtc_ex.c ****   tmpreg |= ((uint32_t)sTamper->Filter            | \
 758              		.loc 1 543 3 is_stmt 1 view .LVU282
 759              		.loc 1 543 31 is_stmt 0 view .LVU283
 760 002a CB68     		ldr	r3, [r1, #12]
 761              		.loc 1 543 51 view .LVU284
 762 002c 0D69     		ldr	r5, [r1, #16]
 763 002e 2B43     		orrs	r3, r3, r5
 544:Drivers/STM32F4xx_HAL_Driver/Src/stm32f4xx_hal_rtc_ex.c ****              (uint32_t)sTamper->SamplingFrequency | \
 764              		.loc 1 544 51 view .LVU285
 765 0030 4D69     		ldr	r5, [r1, #20]
 766 0032 2B43     		orrs	r3, r3, r5
 545:Drivers/STM32F4xx_HAL_Driver/Src/stm32f4xx_hal_rtc_ex.c ****              (uint32_t)sTamper->PrechargeDuration | \
 767              		.loc 1 545 51 view .LVU286
 768 0034 8D69     		ldr	r5, [r1, #24]
 769 0036 2B43     		orrs	r3, r3, r5
 546:Drivers/STM32F4xx_HAL_Driver/Src/stm32f4xx_hal_rtc_ex.c ****              (uint32_t)sTamper->TamperPullUp      | \
 770              		.loc 1 546 51 view .LVU287
 771 0038 4D68     		ldr	r5, [r1, #4]
 772 003a 2B43     		orrs	r3, r3, r5
 547:Drivers/STM32F4xx_HAL_Driver/Src/stm32f4xx_hal_rtc_ex.c ****              (uint32_t)sTamper->PinSelection      | \
 548:Drivers/STM32F4xx_HAL_Driver/Src/stm32f4xx_hal_rtc_ex.c ****              (uint32_t)sTamper->TimeStampOnTamperDetection);
 773              		.loc 1 548 31 view .LVU288
 774 003c C969     		ldr	r1, [r1, #28]
 775              	.LVL61:
 547:Drivers/STM32F4xx_HAL_Driver/Src/stm32f4xx_hal_rtc_ex.c ****              (uint32_t)sTamper->PinSelection      | \
 776              		.loc 1 547 51 view .LVU289
 777 003e 0B43     		orrs	r3, r3, r1
 543:Drivers/STM32F4xx_HAL_Driver/Src/stm32f4xx_hal_rtc_ex.c ****              (uint32_t)sTamper->SamplingFrequency | \
 778              		.loc 1 543 10 view .LVU290
 779 0040 1343     		orrs	r3, r3, r2
 780              	.LVL62:
 549:Drivers/STM32F4xx_HAL_Driver/Src/stm32f4xx_hal_rtc_ex.c **** 
 550:Drivers/STM32F4xx_HAL_Driver/Src/stm32f4xx_hal_rtc_ex.c ****   /* Enable global tamper interrupt */
 551:Drivers/STM32F4xx_HAL_Driver/Src/stm32f4xx_hal_rtc_ex.c ****   tmpreg |= (uint32_t)RTC_TAFCR_TAMPIE;
 781              		.loc 1 551 3 is_stmt 1 view .LVU291
 782              		.loc 1 551 10 is_stmt 0 view .LVU292
 783 0042 43F00403 		orr	r3, r3, #4
 784              	.LVL63:
 552:Drivers/STM32F4xx_HAL_Driver/Src/stm32f4xx_hal_rtc_ex.c **** 
 553:Drivers/STM32F4xx_HAL_Driver/Src/stm32f4xx_hal_rtc_ex.c ****   /* Copy desired configuration into configuration register */
 554:Drivers/STM32F4xx_HAL_Driver/Src/stm32f4xx_hal_rtc_ex.c ****   hrtc->Instance->TAFCR = tmpreg;
 785              		.loc 1 554 3 is_stmt 1 view .LVU293
 786              		.loc 1 554 25 is_stmt 0 view .LVU294
 787 0046 2364     		str	r3, [r4, #64]
 555:Drivers/STM32F4xx_HAL_Driver/Src/stm32f4xx_hal_rtc_ex.c **** 
 556:Drivers/STM32F4xx_HAL_Driver/Src/stm32f4xx_hal_rtc_ex.c ****   /* RTC Tamper Interrupt Configuration: EXTI configuration */
 557:Drivers/STM32F4xx_HAL_Driver/Src/stm32f4xx_hal_rtc_ex.c ****   __HAL_RTC_TAMPER_TIMESTAMP_EXTI_ENABLE_IT();
 788              		.loc 1 557 3 is_stmt 1 view .LVU295
 789 0048 0A4B     		ldr	r3, .L44
ARM GAS  /tmp/cckJJ7Hn.s 			page 25


 790              	.LVL64:
 791              		.loc 1 557 3 is_stmt 0 view .LVU296
 792 004a 1A68     		ldr	r2, [r3]
 793 004c 42F40012 		orr	r2, r2, #2097152
 794 0050 1A60     		str	r2, [r3]
 795              	.LVL65:
 558:Drivers/STM32F4xx_HAL_Driver/Src/stm32f4xx_hal_rtc_ex.c ****   __HAL_RTC_TAMPER_TIMESTAMP_EXTI_ENABLE_RISING_EDGE();
 796              		.loc 1 558 3 is_stmt 1 view .LVU297
 797 0052 9A68     		ldr	r2, [r3, #8]
 798 0054 42F40012 		orr	r2, r2, #2097152
 799 0058 9A60     		str	r2, [r3, #8]
 559:Drivers/STM32F4xx_HAL_Driver/Src/stm32f4xx_hal_rtc_ex.c **** 
 560:Drivers/STM32F4xx_HAL_Driver/Src/stm32f4xx_hal_rtc_ex.c ****   hrtc->State = HAL_RTC_STATE_READY;
 800              		.loc 1 560 3 view .LVU298
 801              		.loc 1 560 15 is_stmt 0 view .LVU299
 802 005a 0123     		movs	r3, #1
 803 005c 4377     		strb	r3, [r0, #29]
 561:Drivers/STM32F4xx_HAL_Driver/Src/stm32f4xx_hal_rtc_ex.c **** 
 562:Drivers/STM32F4xx_HAL_Driver/Src/stm32f4xx_hal_rtc_ex.c ****   /* Process Unlocked */
 563:Drivers/STM32F4xx_HAL_Driver/Src/stm32f4xx_hal_rtc_ex.c ****   __HAL_UNLOCK(hrtc);
 804              		.loc 1 563 3 is_stmt 1 view .LVU300
 805              		.loc 1 563 3 view .LVU301
 806 005e 0023     		movs	r3, #0
 807 0060 0377     		strb	r3, [r0, #28]
 808              		.loc 1 563 3 view .LVU302
 564:Drivers/STM32F4xx_HAL_Driver/Src/stm32f4xx_hal_rtc_ex.c **** 
 565:Drivers/STM32F4xx_HAL_Driver/Src/stm32f4xx_hal_rtc_ex.c ****   return HAL_OK;
 809              		.loc 1 565 3 view .LVU303
 810              		.loc 1 565 10 is_stmt 0 view .LVU304
 811 0062 1846     		mov	r0, r3
 812              	.LVL66:
 566:Drivers/STM32F4xx_HAL_Driver/Src/stm32f4xx_hal_rtc_ex.c **** }
 813              		.loc 1 566 1 view .LVU305
 814 0064 30BC     		pop	{r4, r5}
 815              		.cfi_remember_state
 816              		.cfi_restore 5
 817              		.cfi_restore 4
 818              		.cfi_def_cfa_offset 0
 819 0066 7047     		bx	lr
 820              	.LVL67:
 821              	.L43:
 822              		.cfi_restore_state
 526:Drivers/STM32F4xx_HAL_Driver/Src/stm32f4xx_hal_rtc_ex.c ****   }
 823              		.loc 1 526 5 is_stmt 1 view .LVU306
 526:Drivers/STM32F4xx_HAL_Driver/Src/stm32f4xx_hal_rtc_ex.c ****   }
 824              		.loc 1 526 12 is_stmt 0 view .LVU307
 825 0068 42EA4303 		orr	r3, r2, r3, lsl #1
 826              	.LVL68:
 526:Drivers/STM32F4xx_HAL_Driver/Src/stm32f4xx_hal_rtc_ex.c ****   }
 827              		.loc 1 526 12 view .LVU308
 828 006c D9E7     		b	.L37
 829              	.LVL69:
 830              	.L38:
 831              		.cfi_def_cfa_offset 0
 832              		.cfi_restore 4
 833              		.cfi_restore 5
 511:Drivers/STM32F4xx_HAL_Driver/Src/stm32f4xx_hal_rtc_ex.c **** 
ARM GAS  /tmp/cckJJ7Hn.s 			page 26


 834              		.loc 1 511 3 view .LVU309
 835 006e 0220     		movs	r0, #2
 836              	.LVL70:
 837              		.loc 1 566 1 view .LVU310
 838 0070 7047     		bx	lr
 839              	.L45:
 840 0072 00BF     		.align	2
 841              	.L44:
 842 0074 003C0140 		.word	1073822720
 843              		.cfi_endproc
 844              	.LFE135:
 846              		.section	.text.HAL_RTCEx_DeactivateTamper,"ax",%progbits
 847              		.align	1
 848              		.global	HAL_RTCEx_DeactivateTamper
 849              		.syntax unified
 850              		.thumb
 851              		.thumb_func
 853              	HAL_RTCEx_DeactivateTamper:
 854              	.LVL71:
 855              	.LFB136:
 567:Drivers/STM32F4xx_HAL_Driver/Src/stm32f4xx_hal_rtc_ex.c **** 
 568:Drivers/STM32F4xx_HAL_Driver/Src/stm32f4xx_hal_rtc_ex.c **** /**
 569:Drivers/STM32F4xx_HAL_Driver/Src/stm32f4xx_hal_rtc_ex.c ****   * @brief  Deactivates Tamper.
 570:Drivers/STM32F4xx_HAL_Driver/Src/stm32f4xx_hal_rtc_ex.c ****   * @note   The tamper global interrupt bit will remain unchanged.
 571:Drivers/STM32F4xx_HAL_Driver/Src/stm32f4xx_hal_rtc_ex.c ****   * @param  hrtc pointer to a RTC_HandleTypeDef structure that contains
 572:Drivers/STM32F4xx_HAL_Driver/Src/stm32f4xx_hal_rtc_ex.c ****   *                the configuration information for RTC.
 573:Drivers/STM32F4xx_HAL_Driver/Src/stm32f4xx_hal_rtc_ex.c ****   * @param  Tamper Selected tamper pin.
 574:Drivers/STM32F4xx_HAL_Driver/Src/stm32f4xx_hal_rtc_ex.c ****   *          This parameter can be any combination of the following values:
 575:Drivers/STM32F4xx_HAL_Driver/Src/stm32f4xx_hal_rtc_ex.c ****   *            @arg RTC_TAMPER_1:  Tamper 1
 576:Drivers/STM32F4xx_HAL_Driver/Src/stm32f4xx_hal_rtc_ex.c ****   *            @arg RTC_TAMPER_2:  Tamper 2
 577:Drivers/STM32F4xx_HAL_Driver/Src/stm32f4xx_hal_rtc_ex.c ****   * @note   RTC_TAMPER_2 is not applicable to all devices.
 578:Drivers/STM32F4xx_HAL_Driver/Src/stm32f4xx_hal_rtc_ex.c ****   * @retval HAL status
 579:Drivers/STM32F4xx_HAL_Driver/Src/stm32f4xx_hal_rtc_ex.c ****   */
 580:Drivers/STM32F4xx_HAL_Driver/Src/stm32f4xx_hal_rtc_ex.c **** HAL_StatusTypeDef HAL_RTCEx_DeactivateTamper(RTC_HandleTypeDef *hrtc, uint32_t Tamper)
 581:Drivers/STM32F4xx_HAL_Driver/Src/stm32f4xx_hal_rtc_ex.c **** {
 856              		.loc 1 581 1 is_stmt 1 view -0
 857              		.cfi_startproc
 858              		@ args = 0, pretend = 0, frame = 0
 859              		@ frame_needed = 0, uses_anonymous_args = 0
 860              		@ link register save eliminated.
 582:Drivers/STM32F4xx_HAL_Driver/Src/stm32f4xx_hal_rtc_ex.c ****   assert_param(IS_RTC_TAMPER(Tamper));
 861              		.loc 1 582 3 view .LVU312
 583:Drivers/STM32F4xx_HAL_Driver/Src/stm32f4xx_hal_rtc_ex.c **** 
 584:Drivers/STM32F4xx_HAL_Driver/Src/stm32f4xx_hal_rtc_ex.c ****   /* Process Locked */
 585:Drivers/STM32F4xx_HAL_Driver/Src/stm32f4xx_hal_rtc_ex.c ****   __HAL_LOCK(hrtc);
 862              		.loc 1 585 3 view .LVU313
 863              		.loc 1 585 3 view .LVU314
 864 0000 037F     		ldrb	r3, [r0, #28]	@ zero_extendqisi2
 865 0002 012B     		cmp	r3, #1
 866 0004 10D0     		beq	.L48
 581:Drivers/STM32F4xx_HAL_Driver/Src/stm32f4xx_hal_rtc_ex.c ****   assert_param(IS_RTC_TAMPER(Tamper));
 867              		.loc 1 581 1 is_stmt 0 discriminator 2 view .LVU315
 868 0006 10B4     		push	{r4}
 869              		.cfi_def_cfa_offset 4
 870              		.cfi_offset 4, -4
 871              		.loc 1 585 3 is_stmt 1 discriminator 2 view .LVU316
 872 0008 0122     		movs	r2, #1
ARM GAS  /tmp/cckJJ7Hn.s 			page 27


 873 000a 0277     		strb	r2, [r0, #28]
 874              		.loc 1 585 3 discriminator 2 view .LVU317
 586:Drivers/STM32F4xx_HAL_Driver/Src/stm32f4xx_hal_rtc_ex.c **** 
 587:Drivers/STM32F4xx_HAL_Driver/Src/stm32f4xx_hal_rtc_ex.c ****   hrtc->State = HAL_RTC_STATE_BUSY;
 875              		.loc 1 587 3 discriminator 2 view .LVU318
 876              		.loc 1 587 15 is_stmt 0 discriminator 2 view .LVU319
 877 000c 0223     		movs	r3, #2
 878 000e 4377     		strb	r3, [r0, #29]
 588:Drivers/STM32F4xx_HAL_Driver/Src/stm32f4xx_hal_rtc_ex.c **** 
 589:Drivers/STM32F4xx_HAL_Driver/Src/stm32f4xx_hal_rtc_ex.c ****   /* Disable the selected Tamper pin */
 590:Drivers/STM32F4xx_HAL_Driver/Src/stm32f4xx_hal_rtc_ex.c ****   hrtc->Instance->TAFCR &= (uint32_t)~Tamper;
 879              		.loc 1 590 3 is_stmt 1 discriminator 2 view .LVU320
 880              		.loc 1 590 7 is_stmt 0 discriminator 2 view .LVU321
 881 0010 0468     		ldr	r4, [r0]
 882              		.loc 1 590 25 discriminator 2 view .LVU322
 883 0012 236C     		ldr	r3, [r4, #64]
 884 0014 23EA0101 		bic	r1, r3, r1
 885              	.LVL72:
 886              		.loc 1 590 25 discriminator 2 view .LVU323
 887 0018 2164     		str	r1, [r4, #64]
 591:Drivers/STM32F4xx_HAL_Driver/Src/stm32f4xx_hal_rtc_ex.c **** 
 592:Drivers/STM32F4xx_HAL_Driver/Src/stm32f4xx_hal_rtc_ex.c ****   hrtc->State = HAL_RTC_STATE_READY;
 888              		.loc 1 592 3 is_stmt 1 discriminator 2 view .LVU324
 889              		.loc 1 592 15 is_stmt 0 discriminator 2 view .LVU325
 890 001a 4277     		strb	r2, [r0, #29]
 593:Drivers/STM32F4xx_HAL_Driver/Src/stm32f4xx_hal_rtc_ex.c **** 
 594:Drivers/STM32F4xx_HAL_Driver/Src/stm32f4xx_hal_rtc_ex.c ****   /* Process Unlocked */
 595:Drivers/STM32F4xx_HAL_Driver/Src/stm32f4xx_hal_rtc_ex.c ****   __HAL_UNLOCK(hrtc);
 891              		.loc 1 595 3 is_stmt 1 discriminator 2 view .LVU326
 892              		.loc 1 595 3 discriminator 2 view .LVU327
 893 001c 0023     		movs	r3, #0
 894 001e 0377     		strb	r3, [r0, #28]
 895              		.loc 1 595 3 discriminator 2 view .LVU328
 596:Drivers/STM32F4xx_HAL_Driver/Src/stm32f4xx_hal_rtc_ex.c **** 
 597:Drivers/STM32F4xx_HAL_Driver/Src/stm32f4xx_hal_rtc_ex.c ****   return HAL_OK;
 896              		.loc 1 597 3 discriminator 2 view .LVU329
 897              		.loc 1 597 10 is_stmt 0 discriminator 2 view .LVU330
 898 0020 1846     		mov	r0, r3
 899              	.LVL73:
 598:Drivers/STM32F4xx_HAL_Driver/Src/stm32f4xx_hal_rtc_ex.c **** }
 900              		.loc 1 598 1 discriminator 2 view .LVU331
 901 0022 5DF8044B 		ldr	r4, [sp], #4
 902              		.cfi_restore 4
 903              		.cfi_def_cfa_offset 0
 904 0026 7047     		bx	lr
 905              	.LVL74:
 906              	.L48:
 585:Drivers/STM32F4xx_HAL_Driver/Src/stm32f4xx_hal_rtc_ex.c **** 
 907              		.loc 1 585 3 view .LVU332
 908 0028 0220     		movs	r0, #2
 909              	.LVL75:
 910              		.loc 1 598 1 view .LVU333
 911 002a 7047     		bx	lr
 912              		.cfi_endproc
 913              	.LFE136:
 915              		.section	.text.HAL_RTCEx_TimeStampEventCallback,"ax",%progbits
 916              		.align	1
ARM GAS  /tmp/cckJJ7Hn.s 			page 28


 917              		.weak	HAL_RTCEx_TimeStampEventCallback
 918              		.syntax unified
 919              		.thumb
 920              		.thumb_func
 922              	HAL_RTCEx_TimeStampEventCallback:
 923              	.LVL76:
 924              	.LFB138:
 599:Drivers/STM32F4xx_HAL_Driver/Src/stm32f4xx_hal_rtc_ex.c **** 
 600:Drivers/STM32F4xx_HAL_Driver/Src/stm32f4xx_hal_rtc_ex.c **** /**
 601:Drivers/STM32F4xx_HAL_Driver/Src/stm32f4xx_hal_rtc_ex.c ****   * @brief  Handles Timestamp and Tamper interrupt request.
 602:Drivers/STM32F4xx_HAL_Driver/Src/stm32f4xx_hal_rtc_ex.c ****   * @param  hrtc pointer to a RTC_HandleTypeDef structure that contains
 603:Drivers/STM32F4xx_HAL_Driver/Src/stm32f4xx_hal_rtc_ex.c ****   *                the configuration information for RTC.
 604:Drivers/STM32F4xx_HAL_Driver/Src/stm32f4xx_hal_rtc_ex.c ****   * @retval None
 605:Drivers/STM32F4xx_HAL_Driver/Src/stm32f4xx_hal_rtc_ex.c ****   */
 606:Drivers/STM32F4xx_HAL_Driver/Src/stm32f4xx_hal_rtc_ex.c **** void HAL_RTCEx_TamperTimeStampIRQHandler(RTC_HandleTypeDef *hrtc)
 607:Drivers/STM32F4xx_HAL_Driver/Src/stm32f4xx_hal_rtc_ex.c **** {
 608:Drivers/STM32F4xx_HAL_Driver/Src/stm32f4xx_hal_rtc_ex.c ****   /* Get the Timestamp interrupt source enable status */
 609:Drivers/STM32F4xx_HAL_Driver/Src/stm32f4xx_hal_rtc_ex.c ****   if (__HAL_RTC_TIMESTAMP_GET_IT_SOURCE(hrtc, RTC_IT_TS) != 0U)
 610:Drivers/STM32F4xx_HAL_Driver/Src/stm32f4xx_hal_rtc_ex.c ****   {
 611:Drivers/STM32F4xx_HAL_Driver/Src/stm32f4xx_hal_rtc_ex.c ****     /* Get the pending status of the Timestamp Interrupt */
 612:Drivers/STM32F4xx_HAL_Driver/Src/stm32f4xx_hal_rtc_ex.c ****     if (__HAL_RTC_TIMESTAMP_GET_FLAG(hrtc, RTC_FLAG_TSF) != 0U)
 613:Drivers/STM32F4xx_HAL_Driver/Src/stm32f4xx_hal_rtc_ex.c ****     {
 614:Drivers/STM32F4xx_HAL_Driver/Src/stm32f4xx_hal_rtc_ex.c ****       /* Timestamp callback */
 615:Drivers/STM32F4xx_HAL_Driver/Src/stm32f4xx_hal_rtc_ex.c **** #if (USE_HAL_RTC_REGISTER_CALLBACKS == 1)
 616:Drivers/STM32F4xx_HAL_Driver/Src/stm32f4xx_hal_rtc_ex.c ****       hrtc->TimeStampEventCallback(hrtc);
 617:Drivers/STM32F4xx_HAL_Driver/Src/stm32f4xx_hal_rtc_ex.c **** #else
 618:Drivers/STM32F4xx_HAL_Driver/Src/stm32f4xx_hal_rtc_ex.c ****       HAL_RTCEx_TimeStampEventCallback(hrtc);
 619:Drivers/STM32F4xx_HAL_Driver/Src/stm32f4xx_hal_rtc_ex.c **** #endif /* USE_HAL_RTC_REGISTER_CALLBACKS */
 620:Drivers/STM32F4xx_HAL_Driver/Src/stm32f4xx_hal_rtc_ex.c **** 
 621:Drivers/STM32F4xx_HAL_Driver/Src/stm32f4xx_hal_rtc_ex.c ****       /* Clear the Timestamp interrupt pending bit */
 622:Drivers/STM32F4xx_HAL_Driver/Src/stm32f4xx_hal_rtc_ex.c ****       __HAL_RTC_TIMESTAMP_CLEAR_FLAG(hrtc, RTC_FLAG_TSF);
 623:Drivers/STM32F4xx_HAL_Driver/Src/stm32f4xx_hal_rtc_ex.c ****     }
 624:Drivers/STM32F4xx_HAL_Driver/Src/stm32f4xx_hal_rtc_ex.c ****   }
 625:Drivers/STM32F4xx_HAL_Driver/Src/stm32f4xx_hal_rtc_ex.c **** 
 626:Drivers/STM32F4xx_HAL_Driver/Src/stm32f4xx_hal_rtc_ex.c ****   /* Get the Tamper 1 interrupt source enable status */
 627:Drivers/STM32F4xx_HAL_Driver/Src/stm32f4xx_hal_rtc_ex.c ****   if (__HAL_RTC_TAMPER_GET_IT_SOURCE(hrtc, RTC_IT_TAMP) != 0U)
 628:Drivers/STM32F4xx_HAL_Driver/Src/stm32f4xx_hal_rtc_ex.c ****   {
 629:Drivers/STM32F4xx_HAL_Driver/Src/stm32f4xx_hal_rtc_ex.c ****     /* Get the pending status of the Tamper 1 Interrupt */
 630:Drivers/STM32F4xx_HAL_Driver/Src/stm32f4xx_hal_rtc_ex.c ****     if (__HAL_RTC_TAMPER_GET_FLAG(hrtc, RTC_FLAG_TAMP1F) != 0U)
 631:Drivers/STM32F4xx_HAL_Driver/Src/stm32f4xx_hal_rtc_ex.c ****     {
 632:Drivers/STM32F4xx_HAL_Driver/Src/stm32f4xx_hal_rtc_ex.c ****       /* Tamper callback */
 633:Drivers/STM32F4xx_HAL_Driver/Src/stm32f4xx_hal_rtc_ex.c **** #if (USE_HAL_RTC_REGISTER_CALLBACKS == 1)
 634:Drivers/STM32F4xx_HAL_Driver/Src/stm32f4xx_hal_rtc_ex.c ****       hrtc->Tamper1EventCallback(hrtc);
 635:Drivers/STM32F4xx_HAL_Driver/Src/stm32f4xx_hal_rtc_ex.c **** #else
 636:Drivers/STM32F4xx_HAL_Driver/Src/stm32f4xx_hal_rtc_ex.c ****       HAL_RTCEx_Tamper1EventCallback(hrtc);
 637:Drivers/STM32F4xx_HAL_Driver/Src/stm32f4xx_hal_rtc_ex.c **** #endif /* USE_HAL_RTC_REGISTER_CALLBACKS */
 638:Drivers/STM32F4xx_HAL_Driver/Src/stm32f4xx_hal_rtc_ex.c **** 
 639:Drivers/STM32F4xx_HAL_Driver/Src/stm32f4xx_hal_rtc_ex.c ****       /* Clear the Tamper interrupt pending bit */
 640:Drivers/STM32F4xx_HAL_Driver/Src/stm32f4xx_hal_rtc_ex.c ****       __HAL_RTC_TAMPER_CLEAR_FLAG(hrtc, RTC_FLAG_TAMP1F);
 641:Drivers/STM32F4xx_HAL_Driver/Src/stm32f4xx_hal_rtc_ex.c ****     }
 642:Drivers/STM32F4xx_HAL_Driver/Src/stm32f4xx_hal_rtc_ex.c ****   }
 643:Drivers/STM32F4xx_HAL_Driver/Src/stm32f4xx_hal_rtc_ex.c **** 
 644:Drivers/STM32F4xx_HAL_Driver/Src/stm32f4xx_hal_rtc_ex.c **** #if defined(RTC_TAMPER2_SUPPORT)
 645:Drivers/STM32F4xx_HAL_Driver/Src/stm32f4xx_hal_rtc_ex.c ****   /* Get the Tamper 2 interrupt source enable status */
 646:Drivers/STM32F4xx_HAL_Driver/Src/stm32f4xx_hal_rtc_ex.c ****   if (__HAL_RTC_TAMPER_GET_IT_SOURCE(hrtc, RTC_IT_TAMP) != 0U)
 647:Drivers/STM32F4xx_HAL_Driver/Src/stm32f4xx_hal_rtc_ex.c ****   {
 648:Drivers/STM32F4xx_HAL_Driver/Src/stm32f4xx_hal_rtc_ex.c ****     /* Get the pending status of the Tamper 2 Interrupt */
ARM GAS  /tmp/cckJJ7Hn.s 			page 29


 649:Drivers/STM32F4xx_HAL_Driver/Src/stm32f4xx_hal_rtc_ex.c ****     if (__HAL_RTC_TAMPER_GET_FLAG(hrtc, RTC_FLAG_TAMP2F) != 0U)
 650:Drivers/STM32F4xx_HAL_Driver/Src/stm32f4xx_hal_rtc_ex.c ****     {
 651:Drivers/STM32F4xx_HAL_Driver/Src/stm32f4xx_hal_rtc_ex.c ****       /* Tamper callback */
 652:Drivers/STM32F4xx_HAL_Driver/Src/stm32f4xx_hal_rtc_ex.c **** #if (USE_HAL_RTC_REGISTER_CALLBACKS == 1)
 653:Drivers/STM32F4xx_HAL_Driver/Src/stm32f4xx_hal_rtc_ex.c ****       hrtc->Tamper2EventCallback(hrtc);
 654:Drivers/STM32F4xx_HAL_Driver/Src/stm32f4xx_hal_rtc_ex.c **** #else
 655:Drivers/STM32F4xx_HAL_Driver/Src/stm32f4xx_hal_rtc_ex.c ****       HAL_RTCEx_Tamper2EventCallback(hrtc);
 656:Drivers/STM32F4xx_HAL_Driver/Src/stm32f4xx_hal_rtc_ex.c **** #endif /* USE_HAL_RTC_REGISTER_CALLBACKS */
 657:Drivers/STM32F4xx_HAL_Driver/Src/stm32f4xx_hal_rtc_ex.c **** 
 658:Drivers/STM32F4xx_HAL_Driver/Src/stm32f4xx_hal_rtc_ex.c ****       /* Clear the Tamper interrupt pending bit */
 659:Drivers/STM32F4xx_HAL_Driver/Src/stm32f4xx_hal_rtc_ex.c ****       __HAL_RTC_TAMPER_CLEAR_FLAG(hrtc, RTC_FLAG_TAMP2F);
 660:Drivers/STM32F4xx_HAL_Driver/Src/stm32f4xx_hal_rtc_ex.c ****     }
 661:Drivers/STM32F4xx_HAL_Driver/Src/stm32f4xx_hal_rtc_ex.c ****   }
 662:Drivers/STM32F4xx_HAL_Driver/Src/stm32f4xx_hal_rtc_ex.c **** #endif /* RTC_TAMPER2_SUPPORT */
 663:Drivers/STM32F4xx_HAL_Driver/Src/stm32f4xx_hal_rtc_ex.c **** 
 664:Drivers/STM32F4xx_HAL_Driver/Src/stm32f4xx_hal_rtc_ex.c ****   /* Clear the EXTI's Flag for RTC Timestamp and Tamper */
 665:Drivers/STM32F4xx_HAL_Driver/Src/stm32f4xx_hal_rtc_ex.c ****   __HAL_RTC_TAMPER_TIMESTAMP_EXTI_CLEAR_FLAG();
 666:Drivers/STM32F4xx_HAL_Driver/Src/stm32f4xx_hal_rtc_ex.c **** 
 667:Drivers/STM32F4xx_HAL_Driver/Src/stm32f4xx_hal_rtc_ex.c ****   /* Change RTC state */
 668:Drivers/STM32F4xx_HAL_Driver/Src/stm32f4xx_hal_rtc_ex.c ****   hrtc->State = HAL_RTC_STATE_READY;
 669:Drivers/STM32F4xx_HAL_Driver/Src/stm32f4xx_hal_rtc_ex.c **** }
 670:Drivers/STM32F4xx_HAL_Driver/Src/stm32f4xx_hal_rtc_ex.c **** 
 671:Drivers/STM32F4xx_HAL_Driver/Src/stm32f4xx_hal_rtc_ex.c **** /**
 672:Drivers/STM32F4xx_HAL_Driver/Src/stm32f4xx_hal_rtc_ex.c ****   * @brief  Timestamp callback.
 673:Drivers/STM32F4xx_HAL_Driver/Src/stm32f4xx_hal_rtc_ex.c ****   * @param  hrtc pointer to a RTC_HandleTypeDef structure that contains
 674:Drivers/STM32F4xx_HAL_Driver/Src/stm32f4xx_hal_rtc_ex.c ****   *                the configuration information for RTC.
 675:Drivers/STM32F4xx_HAL_Driver/Src/stm32f4xx_hal_rtc_ex.c ****   * @retval None
 676:Drivers/STM32F4xx_HAL_Driver/Src/stm32f4xx_hal_rtc_ex.c ****   */
 677:Drivers/STM32F4xx_HAL_Driver/Src/stm32f4xx_hal_rtc_ex.c **** __weak void HAL_RTCEx_TimeStampEventCallback(RTC_HandleTypeDef *hrtc)
 678:Drivers/STM32F4xx_HAL_Driver/Src/stm32f4xx_hal_rtc_ex.c **** {
 925              		.loc 1 678 1 is_stmt 1 view -0
 926              		.cfi_startproc
 927              		@ args = 0, pretend = 0, frame = 0
 928              		@ frame_needed = 0, uses_anonymous_args = 0
 929              		@ link register save eliminated.
 679:Drivers/STM32F4xx_HAL_Driver/Src/stm32f4xx_hal_rtc_ex.c ****   /* Prevent unused argument(s) compilation warning */
 680:Drivers/STM32F4xx_HAL_Driver/Src/stm32f4xx_hal_rtc_ex.c ****   UNUSED(hrtc);
 930              		.loc 1 680 3 view .LVU335
 681:Drivers/STM32F4xx_HAL_Driver/Src/stm32f4xx_hal_rtc_ex.c **** 
 682:Drivers/STM32F4xx_HAL_Driver/Src/stm32f4xx_hal_rtc_ex.c ****   /* NOTE: This function should not be modified, when the callback is needed,
 683:Drivers/STM32F4xx_HAL_Driver/Src/stm32f4xx_hal_rtc_ex.c ****            the HAL_RTCEx_TimeStampEventCallback could be implemented in the user file
 684:Drivers/STM32F4xx_HAL_Driver/Src/stm32f4xx_hal_rtc_ex.c ****   */
 685:Drivers/STM32F4xx_HAL_Driver/Src/stm32f4xx_hal_rtc_ex.c **** }
 931              		.loc 1 685 1 is_stmt 0 view .LVU336
 932 0000 7047     		bx	lr
 933              		.cfi_endproc
 934              	.LFE138:
 936              		.section	.text.HAL_RTCEx_Tamper1EventCallback,"ax",%progbits
 937              		.align	1
 938              		.weak	HAL_RTCEx_Tamper1EventCallback
 939              		.syntax unified
 940              		.thumb
 941              		.thumb_func
 943              	HAL_RTCEx_Tamper1EventCallback:
 944              	.LVL77:
 945              	.LFB139:
 686:Drivers/STM32F4xx_HAL_Driver/Src/stm32f4xx_hal_rtc_ex.c **** 
ARM GAS  /tmp/cckJJ7Hn.s 			page 30


 687:Drivers/STM32F4xx_HAL_Driver/Src/stm32f4xx_hal_rtc_ex.c **** /**
 688:Drivers/STM32F4xx_HAL_Driver/Src/stm32f4xx_hal_rtc_ex.c ****   * @brief  Tamper 1 callback.
 689:Drivers/STM32F4xx_HAL_Driver/Src/stm32f4xx_hal_rtc_ex.c ****   * @param  hrtc pointer to a RTC_HandleTypeDef structure that contains
 690:Drivers/STM32F4xx_HAL_Driver/Src/stm32f4xx_hal_rtc_ex.c ****   *                the configuration information for RTC.
 691:Drivers/STM32F4xx_HAL_Driver/Src/stm32f4xx_hal_rtc_ex.c ****   * @retval None
 692:Drivers/STM32F4xx_HAL_Driver/Src/stm32f4xx_hal_rtc_ex.c ****   */
 693:Drivers/STM32F4xx_HAL_Driver/Src/stm32f4xx_hal_rtc_ex.c **** __weak void HAL_RTCEx_Tamper1EventCallback(RTC_HandleTypeDef *hrtc)
 694:Drivers/STM32F4xx_HAL_Driver/Src/stm32f4xx_hal_rtc_ex.c **** {
 946              		.loc 1 694 1 is_stmt 1 view -0
 947              		.cfi_startproc
 948              		@ args = 0, pretend = 0, frame = 0
 949              		@ frame_needed = 0, uses_anonymous_args = 0
 950              		@ link register save eliminated.
 695:Drivers/STM32F4xx_HAL_Driver/Src/stm32f4xx_hal_rtc_ex.c ****   /* Prevent unused argument(s) compilation warning */
 696:Drivers/STM32F4xx_HAL_Driver/Src/stm32f4xx_hal_rtc_ex.c ****   UNUSED(hrtc);
 951              		.loc 1 696 3 view .LVU338
 697:Drivers/STM32F4xx_HAL_Driver/Src/stm32f4xx_hal_rtc_ex.c **** 
 698:Drivers/STM32F4xx_HAL_Driver/Src/stm32f4xx_hal_rtc_ex.c ****   /* NOTE: This function should not be modified, when the callback is needed,
 699:Drivers/STM32F4xx_HAL_Driver/Src/stm32f4xx_hal_rtc_ex.c ****            the HAL_RTCEx_Tamper1EventCallback could be implemented in the user file
 700:Drivers/STM32F4xx_HAL_Driver/Src/stm32f4xx_hal_rtc_ex.c ****    */
 701:Drivers/STM32F4xx_HAL_Driver/Src/stm32f4xx_hal_rtc_ex.c **** }
 952              		.loc 1 701 1 is_stmt 0 view .LVU339
 953 0000 7047     		bx	lr
 954              		.cfi_endproc
 955              	.LFE139:
 957              		.section	.text.HAL_RTCEx_TamperTimeStampIRQHandler,"ax",%progbits
 958              		.align	1
 959              		.global	HAL_RTCEx_TamperTimeStampIRQHandler
 960              		.syntax unified
 961              		.thumb
 962              		.thumb_func
 964              	HAL_RTCEx_TamperTimeStampIRQHandler:
 965              	.LVL78:
 966              	.LFB137:
 607:Drivers/STM32F4xx_HAL_Driver/Src/stm32f4xx_hal_rtc_ex.c ****   /* Get the Timestamp interrupt source enable status */
 967              		.loc 1 607 1 is_stmt 1 view -0
 968              		.cfi_startproc
 969              		@ args = 0, pretend = 0, frame = 0
 970              		@ frame_needed = 0, uses_anonymous_args = 0
 607:Drivers/STM32F4xx_HAL_Driver/Src/stm32f4xx_hal_rtc_ex.c ****   /* Get the Timestamp interrupt source enable status */
 971              		.loc 1 607 1 is_stmt 0 view .LVU341
 972 0000 10B5     		push	{r4, lr}
 973              		.cfi_def_cfa_offset 8
 974              		.cfi_offset 4, -8
 975              		.cfi_offset 14, -4
 976 0002 0446     		mov	r4, r0
 609:Drivers/STM32F4xx_HAL_Driver/Src/stm32f4xx_hal_rtc_ex.c ****   {
 977              		.loc 1 609 3 is_stmt 1 view .LVU342
 609:Drivers/STM32F4xx_HAL_Driver/Src/stm32f4xx_hal_rtc_ex.c ****   {
 978              		.loc 1 609 7 is_stmt 0 view .LVU343
 979 0004 0368     		ldr	r3, [r0]
 980 0006 9A68     		ldr	r2, [r3, #8]
 609:Drivers/STM32F4xx_HAL_Driver/Src/stm32f4xx_hal_rtc_ex.c ****   {
 981              		.loc 1 609 6 view .LVU344
 982 0008 12F4004F 		tst	r2, #32768
 983 000c 03D0     		beq	.L56
 612:Drivers/STM32F4xx_HAL_Driver/Src/stm32f4xx_hal_rtc_ex.c ****     {
ARM GAS  /tmp/cckJJ7Hn.s 			page 31


 984              		.loc 1 612 5 is_stmt 1 view .LVU345
 612:Drivers/STM32F4xx_HAL_Driver/Src/stm32f4xx_hal_rtc_ex.c ****     {
 985              		.loc 1 612 9 is_stmt 0 view .LVU346
 986 000e DB68     		ldr	r3, [r3, #12]
 612:Drivers/STM32F4xx_HAL_Driver/Src/stm32f4xx_hal_rtc_ex.c ****     {
 987              		.loc 1 612 8 view .LVU347
 988 0010 13F4006F 		tst	r3, #2048
 989 0014 0FD1     		bne	.L59
 990              	.LVL79:
 991              	.L56:
 627:Drivers/STM32F4xx_HAL_Driver/Src/stm32f4xx_hal_rtc_ex.c ****   {
 992              		.loc 1 627 3 is_stmt 1 view .LVU348
 627:Drivers/STM32F4xx_HAL_Driver/Src/stm32f4xx_hal_rtc_ex.c ****   {
 993              		.loc 1 627 7 is_stmt 0 view .LVU349
 994 0016 2368     		ldr	r3, [r4]
 995 0018 1A6C     		ldr	r2, [r3, #64]
 627:Drivers/STM32F4xx_HAL_Driver/Src/stm32f4xx_hal_rtc_ex.c ****   {
 996              		.loc 1 627 6 view .LVU350
 997 001a 12F0040F 		tst	r2, #4
 998 001e 03D0     		beq	.L57
 630:Drivers/STM32F4xx_HAL_Driver/Src/stm32f4xx_hal_rtc_ex.c ****     {
 999              		.loc 1 630 5 is_stmt 1 view .LVU351
 630:Drivers/STM32F4xx_HAL_Driver/Src/stm32f4xx_hal_rtc_ex.c ****     {
 1000              		.loc 1 630 9 is_stmt 0 view .LVU352
 1001 0020 DB68     		ldr	r3, [r3, #12]
 630:Drivers/STM32F4xx_HAL_Driver/Src/stm32f4xx_hal_rtc_ex.c ****     {
 1002              		.loc 1 630 8 view .LVU353
 1003 0022 13F4005F 		tst	r3, #8192
 1004 0026 0FD1     		bne	.L60
 1005              	.L57:
 665:Drivers/STM32F4xx_HAL_Driver/Src/stm32f4xx_hal_rtc_ex.c **** 
 1006              		.loc 1 665 3 is_stmt 1 view .LVU354
 1007 0028 0C4B     		ldr	r3, .L61
 1008 002a 4FF40012 		mov	r2, #2097152
 1009 002e 5A61     		str	r2, [r3, #20]
 668:Drivers/STM32F4xx_HAL_Driver/Src/stm32f4xx_hal_rtc_ex.c **** }
 1010              		.loc 1 668 3 view .LVU355
 668:Drivers/STM32F4xx_HAL_Driver/Src/stm32f4xx_hal_rtc_ex.c **** }
 1011              		.loc 1 668 15 is_stmt 0 view .LVU356
 1012 0030 0123     		movs	r3, #1
 1013 0032 6377     		strb	r3, [r4, #29]
 669:Drivers/STM32F4xx_HAL_Driver/Src/stm32f4xx_hal_rtc_ex.c **** 
 1014              		.loc 1 669 1 view .LVU357
 1015 0034 10BD     		pop	{r4, pc}
 1016              	.LVL80:
 1017              	.L59:
 618:Drivers/STM32F4xx_HAL_Driver/Src/stm32f4xx_hal_rtc_ex.c **** #endif /* USE_HAL_RTC_REGISTER_CALLBACKS */
 1018              		.loc 1 618 7 is_stmt 1 view .LVU358
 1019 0036 FFF7FEFF 		bl	HAL_RTCEx_TimeStampEventCallback
 1020              	.LVL81:
 622:Drivers/STM32F4xx_HAL_Driver/Src/stm32f4xx_hal_rtc_ex.c ****     }
 1021              		.loc 1 622 7 view .LVU359
 1022 003a 2268     		ldr	r2, [r4]
 1023 003c D368     		ldr	r3, [r2, #12]
 1024 003e DBB2     		uxtb	r3, r3
 1025 0040 63F40863 		orn	r3, r3, #2176
 1026 0044 D360     		str	r3, [r2, #12]
ARM GAS  /tmp/cckJJ7Hn.s 			page 32


 1027 0046 E6E7     		b	.L56
 1028              	.L60:
 636:Drivers/STM32F4xx_HAL_Driver/Src/stm32f4xx_hal_rtc_ex.c **** #endif /* USE_HAL_RTC_REGISTER_CALLBACKS */
 1029              		.loc 1 636 7 view .LVU360
 1030 0048 2046     		mov	r0, r4
 1031 004a FFF7FEFF 		bl	HAL_RTCEx_Tamper1EventCallback
 1032              	.LVL82:
 640:Drivers/STM32F4xx_HAL_Driver/Src/stm32f4xx_hal_rtc_ex.c ****     }
 1033              		.loc 1 640 7 view .LVU361
 1034 004e 2268     		ldr	r2, [r4]
 1035 0050 D368     		ldr	r3, [r2, #12]
 1036 0052 DBB2     		uxtb	r3, r3
 1037 0054 63F40253 		orn	r3, r3, #8320
 1038 0058 D360     		str	r3, [r2, #12]
 1039 005a E5E7     		b	.L57
 1040              	.L62:
 1041              		.align	2
 1042              	.L61:
 1043 005c 003C0140 		.word	1073822720
 1044              		.cfi_endproc
 1045              	.LFE137:
 1047              		.section	.text.HAL_RTCEx_PollForTimeStampEvent,"ax",%progbits
 1048              		.align	1
 1049              		.global	HAL_RTCEx_PollForTimeStampEvent
 1050              		.syntax unified
 1051              		.thumb
 1052              		.thumb_func
 1054              	HAL_RTCEx_PollForTimeStampEvent:
 1055              	.LVL83:
 1056              	.LFB140:
 702:Drivers/STM32F4xx_HAL_Driver/Src/stm32f4xx_hal_rtc_ex.c **** 
 703:Drivers/STM32F4xx_HAL_Driver/Src/stm32f4xx_hal_rtc_ex.c **** #if defined(RTC_TAMPER2_SUPPORT)
 704:Drivers/STM32F4xx_HAL_Driver/Src/stm32f4xx_hal_rtc_ex.c **** /**
 705:Drivers/STM32F4xx_HAL_Driver/Src/stm32f4xx_hal_rtc_ex.c ****   * @brief  Tamper 2 callback.
 706:Drivers/STM32F4xx_HAL_Driver/Src/stm32f4xx_hal_rtc_ex.c ****   * @param  hrtc pointer to a RTC_HandleTypeDef structure that contains
 707:Drivers/STM32F4xx_HAL_Driver/Src/stm32f4xx_hal_rtc_ex.c ****   *                the configuration information for RTC.
 708:Drivers/STM32F4xx_HAL_Driver/Src/stm32f4xx_hal_rtc_ex.c ****   * @retval None
 709:Drivers/STM32F4xx_HAL_Driver/Src/stm32f4xx_hal_rtc_ex.c ****   */
 710:Drivers/STM32F4xx_HAL_Driver/Src/stm32f4xx_hal_rtc_ex.c **** __weak void HAL_RTCEx_Tamper2EventCallback(RTC_HandleTypeDef *hrtc)
 711:Drivers/STM32F4xx_HAL_Driver/Src/stm32f4xx_hal_rtc_ex.c **** {
 712:Drivers/STM32F4xx_HAL_Driver/Src/stm32f4xx_hal_rtc_ex.c ****   /* Prevent unused argument(s) compilation warning */
 713:Drivers/STM32F4xx_HAL_Driver/Src/stm32f4xx_hal_rtc_ex.c ****   UNUSED(hrtc);
 714:Drivers/STM32F4xx_HAL_Driver/Src/stm32f4xx_hal_rtc_ex.c **** 
 715:Drivers/STM32F4xx_HAL_Driver/Src/stm32f4xx_hal_rtc_ex.c ****   /* NOTE: This function should not be modified, when the callback is needed,
 716:Drivers/STM32F4xx_HAL_Driver/Src/stm32f4xx_hal_rtc_ex.c ****            the HAL_RTCEx_Tamper2EventCallback could be implemented in the user file
 717:Drivers/STM32F4xx_HAL_Driver/Src/stm32f4xx_hal_rtc_ex.c ****    */
 718:Drivers/STM32F4xx_HAL_Driver/Src/stm32f4xx_hal_rtc_ex.c **** }
 719:Drivers/STM32F4xx_HAL_Driver/Src/stm32f4xx_hal_rtc_ex.c **** #endif /* RTC_TAMPER2_SUPPORT */
 720:Drivers/STM32F4xx_HAL_Driver/Src/stm32f4xx_hal_rtc_ex.c **** 
 721:Drivers/STM32F4xx_HAL_Driver/Src/stm32f4xx_hal_rtc_ex.c **** /**
 722:Drivers/STM32F4xx_HAL_Driver/Src/stm32f4xx_hal_rtc_ex.c ****   * @brief  Handles Timestamp polling request.
 723:Drivers/STM32F4xx_HAL_Driver/Src/stm32f4xx_hal_rtc_ex.c ****   * @param  hrtc pointer to a RTC_HandleTypeDef structure that contains
 724:Drivers/STM32F4xx_HAL_Driver/Src/stm32f4xx_hal_rtc_ex.c ****   *                the configuration information for RTC.
 725:Drivers/STM32F4xx_HAL_Driver/Src/stm32f4xx_hal_rtc_ex.c ****   * @param  Timeout Timeout duration
 726:Drivers/STM32F4xx_HAL_Driver/Src/stm32f4xx_hal_rtc_ex.c ****   * @retval HAL status
 727:Drivers/STM32F4xx_HAL_Driver/Src/stm32f4xx_hal_rtc_ex.c ****   */
 728:Drivers/STM32F4xx_HAL_Driver/Src/stm32f4xx_hal_rtc_ex.c **** HAL_StatusTypeDef HAL_RTCEx_PollForTimeStampEvent(RTC_HandleTypeDef *hrtc, uint32_t Timeout)
ARM GAS  /tmp/cckJJ7Hn.s 			page 33


 729:Drivers/STM32F4xx_HAL_Driver/Src/stm32f4xx_hal_rtc_ex.c **** {
 1057              		.loc 1 729 1 view -0
 1058              		.cfi_startproc
 1059              		@ args = 0, pretend = 0, frame = 0
 1060              		@ frame_needed = 0, uses_anonymous_args = 0
 1061              		.loc 1 729 1 is_stmt 0 view .LVU363
 1062 0000 70B5     		push	{r4, r5, r6, lr}
 1063              		.cfi_def_cfa_offset 16
 1064              		.cfi_offset 4, -16
 1065              		.cfi_offset 5, -12
 1066              		.cfi_offset 6, -8
 1067              		.cfi_offset 14, -4
 1068 0002 0546     		mov	r5, r0
 1069 0004 0C46     		mov	r4, r1
 730:Drivers/STM32F4xx_HAL_Driver/Src/stm32f4xx_hal_rtc_ex.c ****   uint32_t tickstart = 0U;
 1070              		.loc 1 730 3 is_stmt 1 view .LVU364
 1071              	.LVL84:
 731:Drivers/STM32F4xx_HAL_Driver/Src/stm32f4xx_hal_rtc_ex.c **** 
 732:Drivers/STM32F4xx_HAL_Driver/Src/stm32f4xx_hal_rtc_ex.c ****   /* Get tick */
 733:Drivers/STM32F4xx_HAL_Driver/Src/stm32f4xx_hal_rtc_ex.c ****   tickstart = HAL_GetTick();
 1072              		.loc 1 733 3 view .LVU365
 1073              		.loc 1 733 15 is_stmt 0 view .LVU366
 1074 0006 FFF7FEFF 		bl	HAL_GetTick
 1075              	.LVL85:
 1076              		.loc 1 733 15 view .LVU367
 1077 000a 0646     		mov	r6, r0
 1078              	.LVL86:
 734:Drivers/STM32F4xx_HAL_Driver/Src/stm32f4xx_hal_rtc_ex.c **** 
 735:Drivers/STM32F4xx_HAL_Driver/Src/stm32f4xx_hal_rtc_ex.c ****   while (__HAL_RTC_TIMESTAMP_GET_FLAG(hrtc, RTC_FLAG_TSF) == 0U)
 1079              		.loc 1 735 3 is_stmt 1 view .LVU368
 1080              		.loc 1 735 9 is_stmt 0 view .LVU369
 1081 000c 04E0     		b	.L64
 1082              	.LVL87:
 1083              	.L65:
 736:Drivers/STM32F4xx_HAL_Driver/Src/stm32f4xx_hal_rtc_ex.c ****   {
 737:Drivers/STM32F4xx_HAL_Driver/Src/stm32f4xx_hal_rtc_ex.c ****     if (Timeout != HAL_MAX_DELAY)
 738:Drivers/STM32F4xx_HAL_Driver/Src/stm32f4xx_hal_rtc_ex.c ****     {
 739:Drivers/STM32F4xx_HAL_Driver/Src/stm32f4xx_hal_rtc_ex.c ****       if ((Timeout == 0U) || ((HAL_GetTick() - tickstart) > Timeout))
 740:Drivers/STM32F4xx_HAL_Driver/Src/stm32f4xx_hal_rtc_ex.c ****       {
 741:Drivers/STM32F4xx_HAL_Driver/Src/stm32f4xx_hal_rtc_ex.c ****         hrtc->State = HAL_RTC_STATE_TIMEOUT;
 742:Drivers/STM32F4xx_HAL_Driver/Src/stm32f4xx_hal_rtc_ex.c ****         return HAL_TIMEOUT;
 743:Drivers/STM32F4xx_HAL_Driver/Src/stm32f4xx_hal_rtc_ex.c ****       }
 744:Drivers/STM32F4xx_HAL_Driver/Src/stm32f4xx_hal_rtc_ex.c ****     }
 745:Drivers/STM32F4xx_HAL_Driver/Src/stm32f4xx_hal_rtc_ex.c **** 
 746:Drivers/STM32F4xx_HAL_Driver/Src/stm32f4xx_hal_rtc_ex.c ****     if (__HAL_RTC_TIMESTAMP_GET_FLAG(hrtc, RTC_FLAG_TSOVF) != 0U)
 1084              		.loc 1 746 5 is_stmt 1 view .LVU370
 1085              		.loc 1 746 9 is_stmt 0 view .LVU371
 1086 000e 2B68     		ldr	r3, [r5]
 1087 0010 DA68     		ldr	r2, [r3, #12]
 1088              		.loc 1 746 8 view .LVU372
 1089 0012 12F4805F 		tst	r2, #4096
 1090 0016 10D1     		bne	.L70
 1091              	.L64:
 735:Drivers/STM32F4xx_HAL_Driver/Src/stm32f4xx_hal_rtc_ex.c ****   {
 1092              		.loc 1 735 9 is_stmt 1 view .LVU373
 735:Drivers/STM32F4xx_HAL_Driver/Src/stm32f4xx_hal_rtc_ex.c ****   {
 1093              		.loc 1 735 10 is_stmt 0 view .LVU374
ARM GAS  /tmp/cckJJ7Hn.s 			page 34


 1094 0018 2B68     		ldr	r3, [r5]
 1095 001a DB68     		ldr	r3, [r3, #12]
 735:Drivers/STM32F4xx_HAL_Driver/Src/stm32f4xx_hal_rtc_ex.c ****   {
 1096              		.loc 1 735 9 view .LVU375
 1097 001c 13F4006F 		tst	r3, #2048
 1098 0020 14D1     		bne	.L71
 737:Drivers/STM32F4xx_HAL_Driver/Src/stm32f4xx_hal_rtc_ex.c ****     {
 1099              		.loc 1 737 5 is_stmt 1 view .LVU376
 737:Drivers/STM32F4xx_HAL_Driver/Src/stm32f4xx_hal_rtc_ex.c ****     {
 1100              		.loc 1 737 8 is_stmt 0 view .LVU377
 1101 0022 B4F1FF3F 		cmp	r4, #-1
 1102 0026 F2D0     		beq	.L65
 739:Drivers/STM32F4xx_HAL_Driver/Src/stm32f4xx_hal_rtc_ex.c ****       {
 1103              		.loc 1 739 7 is_stmt 1 view .LVU378
 739:Drivers/STM32F4xx_HAL_Driver/Src/stm32f4xx_hal_rtc_ex.c ****       {
 1104              		.loc 1 739 10 is_stmt 0 view .LVU379
 1105 0028 24B1     		cbz	r4, .L66
 739:Drivers/STM32F4xx_HAL_Driver/Src/stm32f4xx_hal_rtc_ex.c ****       {
 1106              		.loc 1 739 32 discriminator 1 view .LVU380
 1107 002a FFF7FEFF 		bl	HAL_GetTick
 1108              	.LVL88:
 739:Drivers/STM32F4xx_HAL_Driver/Src/stm32f4xx_hal_rtc_ex.c ****       {
 1109              		.loc 1 739 46 discriminator 1 view .LVU381
 1110 002e 831B     		subs	r3, r0, r6
 739:Drivers/STM32F4xx_HAL_Driver/Src/stm32f4xx_hal_rtc_ex.c ****       {
 1111              		.loc 1 739 27 discriminator 1 view .LVU382
 1112 0030 A342     		cmp	r3, r4
 1113 0032 ECD9     		bls	.L65
 1114              	.L66:
 741:Drivers/STM32F4xx_HAL_Driver/Src/stm32f4xx_hal_rtc_ex.c ****         return HAL_TIMEOUT;
 1115              		.loc 1 741 9 is_stmt 1 view .LVU383
 741:Drivers/STM32F4xx_HAL_Driver/Src/stm32f4xx_hal_rtc_ex.c ****         return HAL_TIMEOUT;
 1116              		.loc 1 741 21 is_stmt 0 view .LVU384
 1117 0034 0320     		movs	r0, #3
 1118 0036 6877     		strb	r0, [r5, #29]
 742:Drivers/STM32F4xx_HAL_Driver/Src/stm32f4xx_hal_rtc_ex.c ****       }
 1119              		.loc 1 742 9 is_stmt 1 view .LVU385
 1120              	.L67:
 747:Drivers/STM32F4xx_HAL_Driver/Src/stm32f4xx_hal_rtc_ex.c ****     {
 748:Drivers/STM32F4xx_HAL_Driver/Src/stm32f4xx_hal_rtc_ex.c ****       /* Clear the Timestamp Overrun Flag */
 749:Drivers/STM32F4xx_HAL_Driver/Src/stm32f4xx_hal_rtc_ex.c ****       __HAL_RTC_TIMESTAMP_CLEAR_FLAG(hrtc, RTC_FLAG_TSOVF);
 750:Drivers/STM32F4xx_HAL_Driver/Src/stm32f4xx_hal_rtc_ex.c **** 
 751:Drivers/STM32F4xx_HAL_Driver/Src/stm32f4xx_hal_rtc_ex.c ****       /* Change Timestamp state */
 752:Drivers/STM32F4xx_HAL_Driver/Src/stm32f4xx_hal_rtc_ex.c ****       hrtc->State = HAL_RTC_STATE_ERROR;
 753:Drivers/STM32F4xx_HAL_Driver/Src/stm32f4xx_hal_rtc_ex.c **** 
 754:Drivers/STM32F4xx_HAL_Driver/Src/stm32f4xx_hal_rtc_ex.c ****       return HAL_ERROR;
 755:Drivers/STM32F4xx_HAL_Driver/Src/stm32f4xx_hal_rtc_ex.c ****     }
 756:Drivers/STM32F4xx_HAL_Driver/Src/stm32f4xx_hal_rtc_ex.c ****   }
 757:Drivers/STM32F4xx_HAL_Driver/Src/stm32f4xx_hal_rtc_ex.c **** 
 758:Drivers/STM32F4xx_HAL_Driver/Src/stm32f4xx_hal_rtc_ex.c ****   /* Change RTC state */
 759:Drivers/STM32F4xx_HAL_Driver/Src/stm32f4xx_hal_rtc_ex.c ****   hrtc->State = HAL_RTC_STATE_READY;
 760:Drivers/STM32F4xx_HAL_Driver/Src/stm32f4xx_hal_rtc_ex.c **** 
 761:Drivers/STM32F4xx_HAL_Driver/Src/stm32f4xx_hal_rtc_ex.c ****   return HAL_OK;
 762:Drivers/STM32F4xx_HAL_Driver/Src/stm32f4xx_hal_rtc_ex.c **** }
 1121              		.loc 1 762 1 is_stmt 0 view .LVU386
 1122 0038 70BD     		pop	{r4, r5, r6, pc}
 1123              	.LVL89:
ARM GAS  /tmp/cckJJ7Hn.s 			page 35


 1124              	.L70:
 749:Drivers/STM32F4xx_HAL_Driver/Src/stm32f4xx_hal_rtc_ex.c **** 
 1125              		.loc 1 749 7 is_stmt 1 view .LVU387
 1126 003a DA68     		ldr	r2, [r3, #12]
 1127 003c D2B2     		uxtb	r2, r2
 1128 003e 62F48452 		orn	r2, r2, #4224
 1129 0042 DA60     		str	r2, [r3, #12]
 752:Drivers/STM32F4xx_HAL_Driver/Src/stm32f4xx_hal_rtc_ex.c **** 
 1130              		.loc 1 752 7 view .LVU388
 752:Drivers/STM32F4xx_HAL_Driver/Src/stm32f4xx_hal_rtc_ex.c **** 
 1131              		.loc 1 752 19 is_stmt 0 view .LVU389
 1132 0044 0423     		movs	r3, #4
 1133 0046 6B77     		strb	r3, [r5, #29]
 754:Drivers/STM32F4xx_HAL_Driver/Src/stm32f4xx_hal_rtc_ex.c ****     }
 1134              		.loc 1 754 7 is_stmt 1 view .LVU390
 754:Drivers/STM32F4xx_HAL_Driver/Src/stm32f4xx_hal_rtc_ex.c ****     }
 1135              		.loc 1 754 14 is_stmt 0 view .LVU391
 1136 0048 0120     		movs	r0, #1
 1137 004a F5E7     		b	.L67
 1138              	.L71:
 759:Drivers/STM32F4xx_HAL_Driver/Src/stm32f4xx_hal_rtc_ex.c **** 
 1139              		.loc 1 759 3 is_stmt 1 view .LVU392
 759:Drivers/STM32F4xx_HAL_Driver/Src/stm32f4xx_hal_rtc_ex.c **** 
 1140              		.loc 1 759 15 is_stmt 0 view .LVU393
 1141 004c 0123     		movs	r3, #1
 1142 004e 6B77     		strb	r3, [r5, #29]
 761:Drivers/STM32F4xx_HAL_Driver/Src/stm32f4xx_hal_rtc_ex.c **** }
 1143              		.loc 1 761 3 is_stmt 1 view .LVU394
 761:Drivers/STM32F4xx_HAL_Driver/Src/stm32f4xx_hal_rtc_ex.c **** }
 1144              		.loc 1 761 10 is_stmt 0 view .LVU395
 1145 0050 0020     		movs	r0, #0
 1146 0052 F1E7     		b	.L67
 1147              		.cfi_endproc
 1148              	.LFE140:
 1150              		.section	.text.HAL_RTCEx_PollForTamper1Event,"ax",%progbits
 1151              		.align	1
 1152              		.global	HAL_RTCEx_PollForTamper1Event
 1153              		.syntax unified
 1154              		.thumb
 1155              		.thumb_func
 1157              	HAL_RTCEx_PollForTamper1Event:
 1158              	.LVL90:
 1159              	.LFB141:
 763:Drivers/STM32F4xx_HAL_Driver/Src/stm32f4xx_hal_rtc_ex.c **** 
 764:Drivers/STM32F4xx_HAL_Driver/Src/stm32f4xx_hal_rtc_ex.c **** /**
 765:Drivers/STM32F4xx_HAL_Driver/Src/stm32f4xx_hal_rtc_ex.c ****   * @brief  Handles Tamper 1 Polling.
 766:Drivers/STM32F4xx_HAL_Driver/Src/stm32f4xx_hal_rtc_ex.c ****   * @param  hrtc pointer to a RTC_HandleTypeDef structure that contains
 767:Drivers/STM32F4xx_HAL_Driver/Src/stm32f4xx_hal_rtc_ex.c ****   *                the configuration information for RTC.
 768:Drivers/STM32F4xx_HAL_Driver/Src/stm32f4xx_hal_rtc_ex.c ****   * @param  Timeout Timeout duration
 769:Drivers/STM32F4xx_HAL_Driver/Src/stm32f4xx_hal_rtc_ex.c ****   * @retval HAL status
 770:Drivers/STM32F4xx_HAL_Driver/Src/stm32f4xx_hal_rtc_ex.c ****   */
 771:Drivers/STM32F4xx_HAL_Driver/Src/stm32f4xx_hal_rtc_ex.c **** HAL_StatusTypeDef HAL_RTCEx_PollForTamper1Event(RTC_HandleTypeDef *hrtc, uint32_t Timeout)
 772:Drivers/STM32F4xx_HAL_Driver/Src/stm32f4xx_hal_rtc_ex.c **** {
 1160              		.loc 1 772 1 is_stmt 1 view -0
 1161              		.cfi_startproc
 1162              		@ args = 0, pretend = 0, frame = 0
 1163              		@ frame_needed = 0, uses_anonymous_args = 0
ARM GAS  /tmp/cckJJ7Hn.s 			page 36


 1164              		.loc 1 772 1 is_stmt 0 view .LVU397
 1165 0000 70B5     		push	{r4, r5, r6, lr}
 1166              		.cfi_def_cfa_offset 16
 1167              		.cfi_offset 4, -16
 1168              		.cfi_offset 5, -12
 1169              		.cfi_offset 6, -8
 1170              		.cfi_offset 14, -4
 1171 0002 0446     		mov	r4, r0
 1172 0004 0D46     		mov	r5, r1
 773:Drivers/STM32F4xx_HAL_Driver/Src/stm32f4xx_hal_rtc_ex.c ****   uint32_t tickstart = 0U;
 1173              		.loc 1 773 3 is_stmt 1 view .LVU398
 1174              	.LVL91:
 774:Drivers/STM32F4xx_HAL_Driver/Src/stm32f4xx_hal_rtc_ex.c **** 
 775:Drivers/STM32F4xx_HAL_Driver/Src/stm32f4xx_hal_rtc_ex.c ****   /* Get tick */
 776:Drivers/STM32F4xx_HAL_Driver/Src/stm32f4xx_hal_rtc_ex.c ****   tickstart = HAL_GetTick();
 1175              		.loc 1 776 3 view .LVU399
 1176              		.loc 1 776 15 is_stmt 0 view .LVU400
 1177 0006 FFF7FEFF 		bl	HAL_GetTick
 1178              	.LVL92:
 1179              		.loc 1 776 15 view .LVU401
 1180 000a 0646     		mov	r6, r0
 1181              	.LVL93:
 777:Drivers/STM32F4xx_HAL_Driver/Src/stm32f4xx_hal_rtc_ex.c **** 
 778:Drivers/STM32F4xx_HAL_Driver/Src/stm32f4xx_hal_rtc_ex.c ****   /* Get the status of the Interrupt */
 779:Drivers/STM32F4xx_HAL_Driver/Src/stm32f4xx_hal_rtc_ex.c ****   while (__HAL_RTC_TAMPER_GET_FLAG(hrtc, RTC_FLAG_TAMP1F) == 0U)
 1182              		.loc 1 779 3 is_stmt 1 view .LVU402
 1183              	.L74:
 1184              		.loc 1 779 9 view .LVU403
 1185              		.loc 1 779 10 is_stmt 0 view .LVU404
 1186 000c 2368     		ldr	r3, [r4]
 1187 000e DA68     		ldr	r2, [r3, #12]
 1188              		.loc 1 779 9 view .LVU405
 1189 0010 12F4005F 		tst	r2, #8192
 1190 0014 0BD1     		bne	.L79
 780:Drivers/STM32F4xx_HAL_Driver/Src/stm32f4xx_hal_rtc_ex.c ****   {
 781:Drivers/STM32F4xx_HAL_Driver/Src/stm32f4xx_hal_rtc_ex.c ****     if (Timeout != HAL_MAX_DELAY)
 1191              		.loc 1 781 5 is_stmt 1 view .LVU406
 1192              		.loc 1 781 8 is_stmt 0 view .LVU407
 1193 0016 B5F1FF3F 		cmp	r5, #-1
 1194 001a F7D0     		beq	.L74
 782:Drivers/STM32F4xx_HAL_Driver/Src/stm32f4xx_hal_rtc_ex.c ****     {
 783:Drivers/STM32F4xx_HAL_Driver/Src/stm32f4xx_hal_rtc_ex.c ****       if ((Timeout == 0U) || ((HAL_GetTick() - tickstart) > Timeout))
 1195              		.loc 1 783 7 is_stmt 1 view .LVU408
 1196              		.loc 1 783 10 is_stmt 0 view .LVU409
 1197 001c 25B1     		cbz	r5, .L75
 1198              		.loc 1 783 32 discriminator 1 view .LVU410
 1199 001e FFF7FEFF 		bl	HAL_GetTick
 1200              	.LVL94:
 1201              		.loc 1 783 46 discriminator 1 view .LVU411
 1202 0022 801B     		subs	r0, r0, r6
 1203              		.loc 1 783 27 discriminator 1 view .LVU412
 1204 0024 A842     		cmp	r0, r5
 1205 0026 F1D9     		bls	.L74
 1206              	.L75:
 784:Drivers/STM32F4xx_HAL_Driver/Src/stm32f4xx_hal_rtc_ex.c ****       {
 785:Drivers/STM32F4xx_HAL_Driver/Src/stm32f4xx_hal_rtc_ex.c ****         hrtc->State = HAL_RTC_STATE_TIMEOUT;
 1207              		.loc 1 785 9 is_stmt 1 view .LVU413
ARM GAS  /tmp/cckJJ7Hn.s 			page 37


 1208              		.loc 1 785 21 is_stmt 0 view .LVU414
 1209 0028 0320     		movs	r0, #3
 1210 002a 6077     		strb	r0, [r4, #29]
 786:Drivers/STM32F4xx_HAL_Driver/Src/stm32f4xx_hal_rtc_ex.c ****         return HAL_TIMEOUT;
 1211              		.loc 1 786 9 is_stmt 1 view .LVU415
 1212              		.loc 1 786 16 is_stmt 0 view .LVU416
 1213 002c 07E0     		b	.L76
 1214              	.L79:
 787:Drivers/STM32F4xx_HAL_Driver/Src/stm32f4xx_hal_rtc_ex.c ****       }
 788:Drivers/STM32F4xx_HAL_Driver/Src/stm32f4xx_hal_rtc_ex.c ****     }
 789:Drivers/STM32F4xx_HAL_Driver/Src/stm32f4xx_hal_rtc_ex.c ****   }
 790:Drivers/STM32F4xx_HAL_Driver/Src/stm32f4xx_hal_rtc_ex.c **** 
 791:Drivers/STM32F4xx_HAL_Driver/Src/stm32f4xx_hal_rtc_ex.c ****   /* Clear the Tamper Flag */
 792:Drivers/STM32F4xx_HAL_Driver/Src/stm32f4xx_hal_rtc_ex.c ****   __HAL_RTC_TAMPER_CLEAR_FLAG(hrtc, RTC_FLAG_TAMP1F);
 1215              		.loc 1 792 3 is_stmt 1 view .LVU417
 1216 002e DA68     		ldr	r2, [r3, #12]
 1217 0030 D2B2     		uxtb	r2, r2
 1218 0032 62F40252 		orn	r2, r2, #8320
 1219 0036 DA60     		str	r2, [r3, #12]
 793:Drivers/STM32F4xx_HAL_Driver/Src/stm32f4xx_hal_rtc_ex.c **** 
 794:Drivers/STM32F4xx_HAL_Driver/Src/stm32f4xx_hal_rtc_ex.c ****   /* Change RTC state */
 795:Drivers/STM32F4xx_HAL_Driver/Src/stm32f4xx_hal_rtc_ex.c ****   hrtc->State = HAL_RTC_STATE_READY;
 1220              		.loc 1 795 3 view .LVU418
 1221              		.loc 1 795 15 is_stmt 0 view .LVU419
 1222 0038 0123     		movs	r3, #1
 1223 003a 6377     		strb	r3, [r4, #29]
 796:Drivers/STM32F4xx_HAL_Driver/Src/stm32f4xx_hal_rtc_ex.c **** 
 797:Drivers/STM32F4xx_HAL_Driver/Src/stm32f4xx_hal_rtc_ex.c ****   return HAL_OK;
 1224              		.loc 1 797 3 is_stmt 1 view .LVU420
 1225              		.loc 1 797 10 is_stmt 0 view .LVU421
 1226 003c 0020     		movs	r0, #0
 1227              	.L76:
 798:Drivers/STM32F4xx_HAL_Driver/Src/stm32f4xx_hal_rtc_ex.c **** }
 1228              		.loc 1 798 1 view .LVU422
 1229 003e 70BD     		pop	{r4, r5, r6, pc}
 1230              		.loc 1 798 1 view .LVU423
 1231              		.cfi_endproc
 1232              	.LFE141:
 1234              		.section	.text.HAL_RTCEx_SetWakeUpTimer,"ax",%progbits
 1235              		.align	1
 1236              		.global	HAL_RTCEx_SetWakeUpTimer
 1237              		.syntax unified
 1238              		.thumb
 1239              		.thumb_func
 1241              	HAL_RTCEx_SetWakeUpTimer:
 1242              	.LVL95:
 1243              	.LFB142:
 799:Drivers/STM32F4xx_HAL_Driver/Src/stm32f4xx_hal_rtc_ex.c **** 
 800:Drivers/STM32F4xx_HAL_Driver/Src/stm32f4xx_hal_rtc_ex.c **** #if defined(RTC_TAMPER2_SUPPORT)
 801:Drivers/STM32F4xx_HAL_Driver/Src/stm32f4xx_hal_rtc_ex.c **** /**
 802:Drivers/STM32F4xx_HAL_Driver/Src/stm32f4xx_hal_rtc_ex.c ****   * @brief  Handles Tamper 2 Polling.
 803:Drivers/STM32F4xx_HAL_Driver/Src/stm32f4xx_hal_rtc_ex.c ****   * @param  hrtc pointer to a RTC_HandleTypeDef structure that contains
 804:Drivers/STM32F4xx_HAL_Driver/Src/stm32f4xx_hal_rtc_ex.c ****   *                the configuration information for RTC.
 805:Drivers/STM32F4xx_HAL_Driver/Src/stm32f4xx_hal_rtc_ex.c ****   * @param  Timeout Timeout duration
 806:Drivers/STM32F4xx_HAL_Driver/Src/stm32f4xx_hal_rtc_ex.c ****   * @retval HAL status
 807:Drivers/STM32F4xx_HAL_Driver/Src/stm32f4xx_hal_rtc_ex.c ****   */
 808:Drivers/STM32F4xx_HAL_Driver/Src/stm32f4xx_hal_rtc_ex.c **** HAL_StatusTypeDef HAL_RTCEx_PollForTamper2Event(RTC_HandleTypeDef *hrtc, uint32_t Timeout)
ARM GAS  /tmp/cckJJ7Hn.s 			page 38


 809:Drivers/STM32F4xx_HAL_Driver/Src/stm32f4xx_hal_rtc_ex.c **** {
 810:Drivers/STM32F4xx_HAL_Driver/Src/stm32f4xx_hal_rtc_ex.c ****   uint32_t tickstart = 0U;
 811:Drivers/STM32F4xx_HAL_Driver/Src/stm32f4xx_hal_rtc_ex.c **** 
 812:Drivers/STM32F4xx_HAL_Driver/Src/stm32f4xx_hal_rtc_ex.c ****   /* Get tick */
 813:Drivers/STM32F4xx_HAL_Driver/Src/stm32f4xx_hal_rtc_ex.c ****   tickstart = HAL_GetTick();
 814:Drivers/STM32F4xx_HAL_Driver/Src/stm32f4xx_hal_rtc_ex.c **** 
 815:Drivers/STM32F4xx_HAL_Driver/Src/stm32f4xx_hal_rtc_ex.c ****   /* Get the status of the Interrupt */
 816:Drivers/STM32F4xx_HAL_Driver/Src/stm32f4xx_hal_rtc_ex.c ****   while (__HAL_RTC_TAMPER_GET_FLAG(hrtc, RTC_FLAG_TAMP2F) == 0U)
 817:Drivers/STM32F4xx_HAL_Driver/Src/stm32f4xx_hal_rtc_ex.c ****   {
 818:Drivers/STM32F4xx_HAL_Driver/Src/stm32f4xx_hal_rtc_ex.c ****     if (Timeout != HAL_MAX_DELAY)
 819:Drivers/STM32F4xx_HAL_Driver/Src/stm32f4xx_hal_rtc_ex.c ****     {
 820:Drivers/STM32F4xx_HAL_Driver/Src/stm32f4xx_hal_rtc_ex.c ****       if ((Timeout == 0U) || ((HAL_GetTick() - tickstart) > Timeout))
 821:Drivers/STM32F4xx_HAL_Driver/Src/stm32f4xx_hal_rtc_ex.c ****       {
 822:Drivers/STM32F4xx_HAL_Driver/Src/stm32f4xx_hal_rtc_ex.c ****         hrtc->State = HAL_RTC_STATE_TIMEOUT;
 823:Drivers/STM32F4xx_HAL_Driver/Src/stm32f4xx_hal_rtc_ex.c ****         return HAL_TIMEOUT;
 824:Drivers/STM32F4xx_HAL_Driver/Src/stm32f4xx_hal_rtc_ex.c ****       }
 825:Drivers/STM32F4xx_HAL_Driver/Src/stm32f4xx_hal_rtc_ex.c ****     }
 826:Drivers/STM32F4xx_HAL_Driver/Src/stm32f4xx_hal_rtc_ex.c ****   }
 827:Drivers/STM32F4xx_HAL_Driver/Src/stm32f4xx_hal_rtc_ex.c **** 
 828:Drivers/STM32F4xx_HAL_Driver/Src/stm32f4xx_hal_rtc_ex.c ****   /* Clear the Tamper Flag */
 829:Drivers/STM32F4xx_HAL_Driver/Src/stm32f4xx_hal_rtc_ex.c ****   __HAL_RTC_TAMPER_CLEAR_FLAG(hrtc, RTC_FLAG_TAMP2F);
 830:Drivers/STM32F4xx_HAL_Driver/Src/stm32f4xx_hal_rtc_ex.c **** 
 831:Drivers/STM32F4xx_HAL_Driver/Src/stm32f4xx_hal_rtc_ex.c ****   /* Change RTC state */
 832:Drivers/STM32F4xx_HAL_Driver/Src/stm32f4xx_hal_rtc_ex.c ****   hrtc->State = HAL_RTC_STATE_READY;
 833:Drivers/STM32F4xx_HAL_Driver/Src/stm32f4xx_hal_rtc_ex.c **** 
 834:Drivers/STM32F4xx_HAL_Driver/Src/stm32f4xx_hal_rtc_ex.c ****   return HAL_OK;
 835:Drivers/STM32F4xx_HAL_Driver/Src/stm32f4xx_hal_rtc_ex.c **** }
 836:Drivers/STM32F4xx_HAL_Driver/Src/stm32f4xx_hal_rtc_ex.c **** #endif /* RTC_TAMPER2_SUPPORT */
 837:Drivers/STM32F4xx_HAL_Driver/Src/stm32f4xx_hal_rtc_ex.c **** 
 838:Drivers/STM32F4xx_HAL_Driver/Src/stm32f4xx_hal_rtc_ex.c **** /**
 839:Drivers/STM32F4xx_HAL_Driver/Src/stm32f4xx_hal_rtc_ex.c ****   * @}
 840:Drivers/STM32F4xx_HAL_Driver/Src/stm32f4xx_hal_rtc_ex.c ****   */
 841:Drivers/STM32F4xx_HAL_Driver/Src/stm32f4xx_hal_rtc_ex.c **** 
 842:Drivers/STM32F4xx_HAL_Driver/Src/stm32f4xx_hal_rtc_ex.c **** /** @defgroup RTCEx_Exported_Functions_Group2 RTC Wakeup functions
 843:Drivers/STM32F4xx_HAL_Driver/Src/stm32f4xx_hal_rtc_ex.c ****   * @brief    RTC Wakeup functions
 844:Drivers/STM32F4xx_HAL_Driver/Src/stm32f4xx_hal_rtc_ex.c ****   *
 845:Drivers/STM32F4xx_HAL_Driver/Src/stm32f4xx_hal_rtc_ex.c **** @verbatim
 846:Drivers/STM32F4xx_HAL_Driver/Src/stm32f4xx_hal_rtc_ex.c ****  ===============================================================================
 847:Drivers/STM32F4xx_HAL_Driver/Src/stm32f4xx_hal_rtc_ex.c ****                         ##### RTC Wakeup functions #####
 848:Drivers/STM32F4xx_HAL_Driver/Src/stm32f4xx_hal_rtc_ex.c ****  ===============================================================================
 849:Drivers/STM32F4xx_HAL_Driver/Src/stm32f4xx_hal_rtc_ex.c **** 
 850:Drivers/STM32F4xx_HAL_Driver/Src/stm32f4xx_hal_rtc_ex.c ****  [..] This section provides functions allowing to configure Wakeup feature
 851:Drivers/STM32F4xx_HAL_Driver/Src/stm32f4xx_hal_rtc_ex.c **** 
 852:Drivers/STM32F4xx_HAL_Driver/Src/stm32f4xx_hal_rtc_ex.c **** @endverbatim
 853:Drivers/STM32F4xx_HAL_Driver/Src/stm32f4xx_hal_rtc_ex.c ****   * @{
 854:Drivers/STM32F4xx_HAL_Driver/Src/stm32f4xx_hal_rtc_ex.c ****   */
 855:Drivers/STM32F4xx_HAL_Driver/Src/stm32f4xx_hal_rtc_ex.c **** 
 856:Drivers/STM32F4xx_HAL_Driver/Src/stm32f4xx_hal_rtc_ex.c **** /**
 857:Drivers/STM32F4xx_HAL_Driver/Src/stm32f4xx_hal_rtc_ex.c ****   * @brief  Sets wakeup timer.
 858:Drivers/STM32F4xx_HAL_Driver/Src/stm32f4xx_hal_rtc_ex.c ****   * @param  hrtc pointer to a RTC_HandleTypeDef structure that contains
 859:Drivers/STM32F4xx_HAL_Driver/Src/stm32f4xx_hal_rtc_ex.c ****   *                the configuration information for RTC.
 860:Drivers/STM32F4xx_HAL_Driver/Src/stm32f4xx_hal_rtc_ex.c ****   * @param  WakeUpCounter Wakeup counter
 861:Drivers/STM32F4xx_HAL_Driver/Src/stm32f4xx_hal_rtc_ex.c ****   * @param  WakeUpClock Wakeup clock
 862:Drivers/STM32F4xx_HAL_Driver/Src/stm32f4xx_hal_rtc_ex.c ****   * @retval HAL status
 863:Drivers/STM32F4xx_HAL_Driver/Src/stm32f4xx_hal_rtc_ex.c ****   */
 864:Drivers/STM32F4xx_HAL_Driver/Src/stm32f4xx_hal_rtc_ex.c **** HAL_StatusTypeDef HAL_RTCEx_SetWakeUpTimer(RTC_HandleTypeDef *hrtc, uint32_t WakeUpCounter, uint32_
 865:Drivers/STM32F4xx_HAL_Driver/Src/stm32f4xx_hal_rtc_ex.c **** {
ARM GAS  /tmp/cckJJ7Hn.s 			page 39


 1244              		.loc 1 865 1 is_stmt 1 view -0
 1245              		.cfi_startproc
 1246              		@ args = 0, pretend = 0, frame = 0
 1247              		@ frame_needed = 0, uses_anonymous_args = 0
 1248              		.loc 1 865 1 is_stmt 0 view .LVU425
 1249 0000 F8B5     		push	{r3, r4, r5, r6, r7, lr}
 1250              		.cfi_def_cfa_offset 24
 1251              		.cfi_offset 3, -24
 1252              		.cfi_offset 4, -20
 1253              		.cfi_offset 5, -16
 1254              		.cfi_offset 6, -12
 1255              		.cfi_offset 7, -8
 1256              		.cfi_offset 14, -4
 866:Drivers/STM32F4xx_HAL_Driver/Src/stm32f4xx_hal_rtc_ex.c ****   uint32_t tickstart = 0U;
 1257              		.loc 1 866 3 is_stmt 1 view .LVU426
 1258              	.LVL96:
 867:Drivers/STM32F4xx_HAL_Driver/Src/stm32f4xx_hal_rtc_ex.c **** 
 868:Drivers/STM32F4xx_HAL_Driver/Src/stm32f4xx_hal_rtc_ex.c ****   /* Check the parameters */
 869:Drivers/STM32F4xx_HAL_Driver/Src/stm32f4xx_hal_rtc_ex.c ****   assert_param(IS_RTC_WAKEUP_CLOCK(WakeUpClock));
 1259              		.loc 1 869 3 view .LVU427
 870:Drivers/STM32F4xx_HAL_Driver/Src/stm32f4xx_hal_rtc_ex.c ****   assert_param(IS_RTC_WAKEUP_COUNTER(WakeUpCounter));
 1260              		.loc 1 870 3 view .LVU428
 871:Drivers/STM32F4xx_HAL_Driver/Src/stm32f4xx_hal_rtc_ex.c **** 
 872:Drivers/STM32F4xx_HAL_Driver/Src/stm32f4xx_hal_rtc_ex.c ****   /* Process Locked */
 873:Drivers/STM32F4xx_HAL_Driver/Src/stm32f4xx_hal_rtc_ex.c ****   __HAL_LOCK(hrtc);
 1261              		.loc 1 873 3 view .LVU429
 1262              		.loc 1 873 3 view .LVU430
 1263 0002 037F     		ldrb	r3, [r0, #28]	@ zero_extendqisi2
 1264 0004 012B     		cmp	r3, #1
 1265 0006 5FD0     		beq	.L87
 1266 0008 0446     		mov	r4, r0
 1267 000a 0D46     		mov	r5, r1
 1268 000c 1646     		mov	r6, r2
 1269              		.loc 1 873 3 discriminator 2 view .LVU431
 1270 000e 0123     		movs	r3, #1
 1271 0010 0377     		strb	r3, [r0, #28]
 1272              		.loc 1 873 3 discriminator 2 view .LVU432
 874:Drivers/STM32F4xx_HAL_Driver/Src/stm32f4xx_hal_rtc_ex.c **** 
 875:Drivers/STM32F4xx_HAL_Driver/Src/stm32f4xx_hal_rtc_ex.c ****   hrtc->State = HAL_RTC_STATE_BUSY;
 1273              		.loc 1 875 3 discriminator 2 view .LVU433
 1274              		.loc 1 875 15 is_stmt 0 discriminator 2 view .LVU434
 1275 0012 0223     		movs	r3, #2
 1276 0014 4377     		strb	r3, [r0, #29]
 876:Drivers/STM32F4xx_HAL_Driver/Src/stm32f4xx_hal_rtc_ex.c **** 
 877:Drivers/STM32F4xx_HAL_Driver/Src/stm32f4xx_hal_rtc_ex.c ****   /* Disable the write protection for RTC registers */
 878:Drivers/STM32F4xx_HAL_Driver/Src/stm32f4xx_hal_rtc_ex.c ****   __HAL_RTC_WRITEPROTECTION_DISABLE(hrtc);
 1277              		.loc 1 878 3 is_stmt 1 discriminator 2 view .LVU435
 1278              		.loc 1 878 3 discriminator 2 view .LVU436
 1279 0016 0368     		ldr	r3, [r0]
 1280 0018 CA22     		movs	r2, #202
 1281              	.LVL97:
 1282              		.loc 1 878 3 is_stmt 0 discriminator 2 view .LVU437
 1283 001a 5A62     		str	r2, [r3, #36]
 1284              		.loc 1 878 3 is_stmt 1 discriminator 2 view .LVU438
 1285 001c 0368     		ldr	r3, [r0]
 1286 001e 5322     		movs	r2, #83
 1287 0020 5A62     		str	r2, [r3, #36]
ARM GAS  /tmp/cckJJ7Hn.s 			page 40


 1288              		.loc 1 878 3 discriminator 2 view .LVU439
 879:Drivers/STM32F4xx_HAL_Driver/Src/stm32f4xx_hal_rtc_ex.c **** 
 880:Drivers/STM32F4xx_HAL_Driver/Src/stm32f4xx_hal_rtc_ex.c ****   /* Check RTC WUTWF flag is reset only when wakeup timer enabled*/
 881:Drivers/STM32F4xx_HAL_Driver/Src/stm32f4xx_hal_rtc_ex.c ****   if ((hrtc->Instance->CR & RTC_CR_WUTE) != 0U)
 1289              		.loc 1 881 3 discriminator 2 view .LVU440
 1290              		.loc 1 881 12 is_stmt 0 discriminator 2 view .LVU441
 1291 0022 0368     		ldr	r3, [r0]
 1292              		.loc 1 881 22 discriminator 2 view .LVU442
 1293 0024 9B68     		ldr	r3, [r3, #8]
 1294              		.loc 1 881 6 discriminator 2 view .LVU443
 1295 0026 13F4806F 		tst	r3, #1024
 1296 002a 15D0     		beq	.L82
 882:Drivers/STM32F4xx_HAL_Driver/Src/stm32f4xx_hal_rtc_ex.c ****   {
 883:Drivers/STM32F4xx_HAL_Driver/Src/stm32f4xx_hal_rtc_ex.c ****     tickstart = HAL_GetTick();
 1297              		.loc 1 883 5 is_stmt 1 view .LVU444
 1298              		.loc 1 883 17 is_stmt 0 view .LVU445
 1299 002c FFF7FEFF 		bl	HAL_GetTick
 1300              	.LVL98:
 1301              		.loc 1 883 17 view .LVU446
 1302 0030 0746     		mov	r7, r0
 1303              	.LVL99:
 884:Drivers/STM32F4xx_HAL_Driver/Src/stm32f4xx_hal_rtc_ex.c **** 
 885:Drivers/STM32F4xx_HAL_Driver/Src/stm32f4xx_hal_rtc_ex.c ****     /* Wait till RTC WUTWF flag is reset and if timeout is reached exit */
 886:Drivers/STM32F4xx_HAL_Driver/Src/stm32f4xx_hal_rtc_ex.c ****     while (__HAL_RTC_WAKEUPTIMER_GET_FLAG(hrtc, RTC_FLAG_WUTWF) != 0U)
 1304              		.loc 1 886 5 is_stmt 1 view .LVU447
 1305              	.L83:
 1306              		.loc 1 886 11 view .LVU448
 1307              		.loc 1 886 12 is_stmt 0 view .LVU449
 1308 0032 2368     		ldr	r3, [r4]
 1309 0034 DB68     		ldr	r3, [r3, #12]
 1310              		.loc 1 886 11 view .LVU450
 1311 0036 13F0040F 		tst	r3, #4
 1312 003a 0DD0     		beq	.L82
 887:Drivers/STM32F4xx_HAL_Driver/Src/stm32f4xx_hal_rtc_ex.c ****     {
 888:Drivers/STM32F4xx_HAL_Driver/Src/stm32f4xx_hal_rtc_ex.c ****       if ((HAL_GetTick() - tickstart) > RTC_TIMEOUT_VALUE)
 1313              		.loc 1 888 7 is_stmt 1 view .LVU451
 1314              		.loc 1 888 12 is_stmt 0 view .LVU452
 1315 003c FFF7FEFF 		bl	HAL_GetTick
 1316              	.LVL100:
 1317              		.loc 1 888 26 view .LVU453
 1318 0040 C01B     		subs	r0, r0, r7
 1319              		.loc 1 888 10 view .LVU454
 1320 0042 B0F57A7F 		cmp	r0, #1000
 1321 0046 F4D9     		bls	.L83
 889:Drivers/STM32F4xx_HAL_Driver/Src/stm32f4xx_hal_rtc_ex.c ****       {
 890:Drivers/STM32F4xx_HAL_Driver/Src/stm32f4xx_hal_rtc_ex.c ****         /* Enable the write protection for RTC registers */
 891:Drivers/STM32F4xx_HAL_Driver/Src/stm32f4xx_hal_rtc_ex.c ****         __HAL_RTC_WRITEPROTECTION_ENABLE(hrtc);
 1322              		.loc 1 891 9 is_stmt 1 view .LVU455
 1323              		.loc 1 891 9 view .LVU456
 1324 0048 2368     		ldr	r3, [r4]
 1325 004a FF22     		movs	r2, #255
 1326 004c 5A62     		str	r2, [r3, #36]
 1327              		.loc 1 891 9 view .LVU457
 892:Drivers/STM32F4xx_HAL_Driver/Src/stm32f4xx_hal_rtc_ex.c **** 
 893:Drivers/STM32F4xx_HAL_Driver/Src/stm32f4xx_hal_rtc_ex.c ****         hrtc->State = HAL_RTC_STATE_TIMEOUT;
 1328              		.loc 1 893 9 view .LVU458
 1329              		.loc 1 893 21 is_stmt 0 view .LVU459
ARM GAS  /tmp/cckJJ7Hn.s 			page 41


 1330 004e 0320     		movs	r0, #3
 1331 0050 6077     		strb	r0, [r4, #29]
 894:Drivers/STM32F4xx_HAL_Driver/Src/stm32f4xx_hal_rtc_ex.c **** 
 895:Drivers/STM32F4xx_HAL_Driver/Src/stm32f4xx_hal_rtc_ex.c ****         /* Process Unlocked */
 896:Drivers/STM32F4xx_HAL_Driver/Src/stm32f4xx_hal_rtc_ex.c ****         __HAL_UNLOCK(hrtc);
 1332              		.loc 1 896 9 is_stmt 1 view .LVU460
 1333              		.loc 1 896 9 view .LVU461
 1334 0052 0023     		movs	r3, #0
 1335 0054 2377     		strb	r3, [r4, #28]
 1336              		.loc 1 896 9 view .LVU462
 897:Drivers/STM32F4xx_HAL_Driver/Src/stm32f4xx_hal_rtc_ex.c **** 
 898:Drivers/STM32F4xx_HAL_Driver/Src/stm32f4xx_hal_rtc_ex.c ****         return HAL_TIMEOUT;
 1337              		.loc 1 898 9 view .LVU463
 1338              		.loc 1 898 16 is_stmt 0 view .LVU464
 1339 0056 36E0     		b	.L81
 1340              	.LVL101:
 1341              	.L82:
 899:Drivers/STM32F4xx_HAL_Driver/Src/stm32f4xx_hal_rtc_ex.c ****       }
 900:Drivers/STM32F4xx_HAL_Driver/Src/stm32f4xx_hal_rtc_ex.c ****     }
 901:Drivers/STM32F4xx_HAL_Driver/Src/stm32f4xx_hal_rtc_ex.c ****   }
 902:Drivers/STM32F4xx_HAL_Driver/Src/stm32f4xx_hal_rtc_ex.c **** 
 903:Drivers/STM32F4xx_HAL_Driver/Src/stm32f4xx_hal_rtc_ex.c ****   /* Disable the Wakeup timer */
 904:Drivers/STM32F4xx_HAL_Driver/Src/stm32f4xx_hal_rtc_ex.c ****   __HAL_RTC_WAKEUPTIMER_DISABLE(hrtc);
 1342              		.loc 1 904 3 is_stmt 1 view .LVU465
 1343 0058 2268     		ldr	r2, [r4]
 1344 005a 9368     		ldr	r3, [r2, #8]
 1345 005c 23F48063 		bic	r3, r3, #1024
 1346 0060 9360     		str	r3, [r2, #8]
 905:Drivers/STM32F4xx_HAL_Driver/Src/stm32f4xx_hal_rtc_ex.c **** 
 906:Drivers/STM32F4xx_HAL_Driver/Src/stm32f4xx_hal_rtc_ex.c ****   /* Clear the Wakeup flag */
 907:Drivers/STM32F4xx_HAL_Driver/Src/stm32f4xx_hal_rtc_ex.c ****   __HAL_RTC_WAKEUPTIMER_CLEAR_FLAG(hrtc, RTC_FLAG_WUTF);
 1347              		.loc 1 907 3 view .LVU466
 1348 0062 2268     		ldr	r2, [r4]
 1349 0064 D368     		ldr	r3, [r2, #12]
 1350 0066 DBB2     		uxtb	r3, r3
 1351 0068 63F49063 		orn	r3, r3, #1152
 1352 006c D360     		str	r3, [r2, #12]
 908:Drivers/STM32F4xx_HAL_Driver/Src/stm32f4xx_hal_rtc_ex.c **** 
 909:Drivers/STM32F4xx_HAL_Driver/Src/stm32f4xx_hal_rtc_ex.c ****   /* Get tick */
 910:Drivers/STM32F4xx_HAL_Driver/Src/stm32f4xx_hal_rtc_ex.c ****   tickstart = HAL_GetTick();
 1353              		.loc 1 910 3 view .LVU467
 1354              		.loc 1 910 15 is_stmt 0 view .LVU468
 1355 006e FFF7FEFF 		bl	HAL_GetTick
 1356              	.LVL102:
 1357 0072 0746     		mov	r7, r0
 1358              	.LVL103:
 911:Drivers/STM32F4xx_HAL_Driver/Src/stm32f4xx_hal_rtc_ex.c **** 
 912:Drivers/STM32F4xx_HAL_Driver/Src/stm32f4xx_hal_rtc_ex.c ****   /* Wait till RTC WUTWF flag is set and if timeout is reached exit */
 913:Drivers/STM32F4xx_HAL_Driver/Src/stm32f4xx_hal_rtc_ex.c ****   while (__HAL_RTC_WAKEUPTIMER_GET_FLAG(hrtc, RTC_FLAG_WUTWF) == 0U)
 1359              		.loc 1 913 3 is_stmt 1 view .LVU469
 1360              	.L85:
 1361              		.loc 1 913 9 view .LVU470
 1362              		.loc 1 913 10 is_stmt 0 view .LVU471
 1363 0074 2368     		ldr	r3, [r4]
 1364 0076 DA68     		ldr	r2, [r3, #12]
 1365              		.loc 1 913 9 view .LVU472
 1366 0078 12F0040F 		tst	r2, #4
ARM GAS  /tmp/cckJJ7Hn.s 			page 42


 1367 007c 0DD1     		bne	.L89
 914:Drivers/STM32F4xx_HAL_Driver/Src/stm32f4xx_hal_rtc_ex.c ****   {
 915:Drivers/STM32F4xx_HAL_Driver/Src/stm32f4xx_hal_rtc_ex.c ****     if ((HAL_GetTick() - tickstart) > RTC_TIMEOUT_VALUE)
 1368              		.loc 1 915 5 is_stmt 1 view .LVU473
 1369              		.loc 1 915 10 is_stmt 0 view .LVU474
 1370 007e FFF7FEFF 		bl	HAL_GetTick
 1371              	.LVL104:
 1372              		.loc 1 915 24 view .LVU475
 1373 0082 C01B     		subs	r0, r0, r7
 1374              		.loc 1 915 8 view .LVU476
 1375 0084 B0F57A7F 		cmp	r0, #1000
 1376 0088 F4D9     		bls	.L85
 916:Drivers/STM32F4xx_HAL_Driver/Src/stm32f4xx_hal_rtc_ex.c ****     {
 917:Drivers/STM32F4xx_HAL_Driver/Src/stm32f4xx_hal_rtc_ex.c ****       /* Enable the write protection for RTC registers */
 918:Drivers/STM32F4xx_HAL_Driver/Src/stm32f4xx_hal_rtc_ex.c ****       __HAL_RTC_WRITEPROTECTION_ENABLE(hrtc);
 1377              		.loc 1 918 7 is_stmt 1 view .LVU477
 1378              		.loc 1 918 7 view .LVU478
 1379 008a 2368     		ldr	r3, [r4]
 1380 008c FF22     		movs	r2, #255
 1381 008e 5A62     		str	r2, [r3, #36]
 1382              		.loc 1 918 7 view .LVU479
 919:Drivers/STM32F4xx_HAL_Driver/Src/stm32f4xx_hal_rtc_ex.c **** 
 920:Drivers/STM32F4xx_HAL_Driver/Src/stm32f4xx_hal_rtc_ex.c ****       hrtc->State = HAL_RTC_STATE_TIMEOUT;
 1383              		.loc 1 920 7 view .LVU480
 1384              		.loc 1 920 19 is_stmt 0 view .LVU481
 1385 0090 0320     		movs	r0, #3
 1386 0092 6077     		strb	r0, [r4, #29]
 921:Drivers/STM32F4xx_HAL_Driver/Src/stm32f4xx_hal_rtc_ex.c **** 
 922:Drivers/STM32F4xx_HAL_Driver/Src/stm32f4xx_hal_rtc_ex.c ****       /* Process Unlocked */
 923:Drivers/STM32F4xx_HAL_Driver/Src/stm32f4xx_hal_rtc_ex.c ****       __HAL_UNLOCK(hrtc);
 1387              		.loc 1 923 7 is_stmt 1 view .LVU482
 1388              		.loc 1 923 7 view .LVU483
 1389 0094 0023     		movs	r3, #0
 1390 0096 2377     		strb	r3, [r4, #28]
 1391              		.loc 1 923 7 view .LVU484
 924:Drivers/STM32F4xx_HAL_Driver/Src/stm32f4xx_hal_rtc_ex.c **** 
 925:Drivers/STM32F4xx_HAL_Driver/Src/stm32f4xx_hal_rtc_ex.c ****       return HAL_TIMEOUT;
 1392              		.loc 1 925 7 view .LVU485
 1393              		.loc 1 925 14 is_stmt 0 view .LVU486
 1394 0098 15E0     		b	.L81
 1395              	.L89:
 926:Drivers/STM32F4xx_HAL_Driver/Src/stm32f4xx_hal_rtc_ex.c ****     }
 927:Drivers/STM32F4xx_HAL_Driver/Src/stm32f4xx_hal_rtc_ex.c ****   }
 928:Drivers/STM32F4xx_HAL_Driver/Src/stm32f4xx_hal_rtc_ex.c **** 
 929:Drivers/STM32F4xx_HAL_Driver/Src/stm32f4xx_hal_rtc_ex.c ****   /* Clear the Wakeup Timer clock source bits in CR register */
 930:Drivers/STM32F4xx_HAL_Driver/Src/stm32f4xx_hal_rtc_ex.c ****   hrtc->Instance->CR &= (uint32_t)~RTC_CR_WUCKSEL;
 1396              		.loc 1 930 3 is_stmt 1 view .LVU487
 1397              		.loc 1 930 22 is_stmt 0 view .LVU488
 1398 009a 9A68     		ldr	r2, [r3, #8]
 1399 009c 22F00702 		bic	r2, r2, #7
 1400 00a0 9A60     		str	r2, [r3, #8]
 931:Drivers/STM32F4xx_HAL_Driver/Src/stm32f4xx_hal_rtc_ex.c **** 
 932:Drivers/STM32F4xx_HAL_Driver/Src/stm32f4xx_hal_rtc_ex.c ****   /* Configure the clock source */
 933:Drivers/STM32F4xx_HAL_Driver/Src/stm32f4xx_hal_rtc_ex.c ****   hrtc->Instance->CR |= (uint32_t)WakeUpClock;
 1401              		.loc 1 933 3 is_stmt 1 view .LVU489
 1402              		.loc 1 933 7 is_stmt 0 view .LVU490
 1403 00a2 2268     		ldr	r2, [r4]
ARM GAS  /tmp/cckJJ7Hn.s 			page 43


 1404              		.loc 1 933 22 view .LVU491
 1405 00a4 9368     		ldr	r3, [r2, #8]
 1406 00a6 1E43     		orrs	r6, r6, r3
 1407              	.LVL105:
 1408              		.loc 1 933 22 view .LVU492
 1409 00a8 9660     		str	r6, [r2, #8]
 934:Drivers/STM32F4xx_HAL_Driver/Src/stm32f4xx_hal_rtc_ex.c **** 
 935:Drivers/STM32F4xx_HAL_Driver/Src/stm32f4xx_hal_rtc_ex.c ****   /* Configure the Wakeup Timer counter */
 936:Drivers/STM32F4xx_HAL_Driver/Src/stm32f4xx_hal_rtc_ex.c ****   hrtc->Instance->WUTR = (uint32_t)WakeUpCounter;
 1410              		.loc 1 936 3 is_stmt 1 view .LVU493
 1411              		.loc 1 936 7 is_stmt 0 view .LVU494
 1412 00aa 2368     		ldr	r3, [r4]
 1413              		.loc 1 936 24 view .LVU495
 1414 00ac 5D61     		str	r5, [r3, #20]
 937:Drivers/STM32F4xx_HAL_Driver/Src/stm32f4xx_hal_rtc_ex.c **** 
 938:Drivers/STM32F4xx_HAL_Driver/Src/stm32f4xx_hal_rtc_ex.c ****   /* Enable the Wakeup Timer */
 939:Drivers/STM32F4xx_HAL_Driver/Src/stm32f4xx_hal_rtc_ex.c ****   __HAL_RTC_WAKEUPTIMER_ENABLE(hrtc);
 1415              		.loc 1 939 3 is_stmt 1 view .LVU496
 1416 00ae 2268     		ldr	r2, [r4]
 1417 00b0 9368     		ldr	r3, [r2, #8]
 1418 00b2 43F48063 		orr	r3, r3, #1024
 1419 00b6 9360     		str	r3, [r2, #8]
 940:Drivers/STM32F4xx_HAL_Driver/Src/stm32f4xx_hal_rtc_ex.c **** 
 941:Drivers/STM32F4xx_HAL_Driver/Src/stm32f4xx_hal_rtc_ex.c ****   /* Enable the write protection for RTC registers */
 942:Drivers/STM32F4xx_HAL_Driver/Src/stm32f4xx_hal_rtc_ex.c ****   __HAL_RTC_WRITEPROTECTION_ENABLE(hrtc);
 1420              		.loc 1 942 3 view .LVU497
 1421              		.loc 1 942 3 view .LVU498
 1422 00b8 2368     		ldr	r3, [r4]
 1423 00ba FF22     		movs	r2, #255
 1424 00bc 5A62     		str	r2, [r3, #36]
 1425              		.loc 1 942 3 view .LVU499
 943:Drivers/STM32F4xx_HAL_Driver/Src/stm32f4xx_hal_rtc_ex.c **** 
 944:Drivers/STM32F4xx_HAL_Driver/Src/stm32f4xx_hal_rtc_ex.c ****   hrtc->State = HAL_RTC_STATE_READY;
 1426              		.loc 1 944 3 view .LVU500
 1427              		.loc 1 944 15 is_stmt 0 view .LVU501
 1428 00be 0123     		movs	r3, #1
 1429 00c0 6377     		strb	r3, [r4, #29]
 945:Drivers/STM32F4xx_HAL_Driver/Src/stm32f4xx_hal_rtc_ex.c **** 
 946:Drivers/STM32F4xx_HAL_Driver/Src/stm32f4xx_hal_rtc_ex.c ****   /* Process Unlocked */
 947:Drivers/STM32F4xx_HAL_Driver/Src/stm32f4xx_hal_rtc_ex.c ****   __HAL_UNLOCK(hrtc);
 1430              		.loc 1 947 3 is_stmt 1 view .LVU502
 1431              		.loc 1 947 3 view .LVU503
 1432 00c2 0020     		movs	r0, #0
 1433 00c4 2077     		strb	r0, [r4, #28]
 1434              		.loc 1 947 3 view .LVU504
 948:Drivers/STM32F4xx_HAL_Driver/Src/stm32f4xx_hal_rtc_ex.c **** 
 949:Drivers/STM32F4xx_HAL_Driver/Src/stm32f4xx_hal_rtc_ex.c ****   return HAL_OK;
 1435              		.loc 1 949 3 view .LVU505
 1436              	.LVL106:
 1437              	.L81:
 950:Drivers/STM32F4xx_HAL_Driver/Src/stm32f4xx_hal_rtc_ex.c **** }
 1438              		.loc 1 950 1 is_stmt 0 view .LVU506
 1439 00c6 F8BD     		pop	{r3, r4, r5, r6, r7, pc}
 1440              	.LVL107:
 1441              	.L87:
 873:Drivers/STM32F4xx_HAL_Driver/Src/stm32f4xx_hal_rtc_ex.c **** 
 1442              		.loc 1 873 3 view .LVU507
ARM GAS  /tmp/cckJJ7Hn.s 			page 44


 1443 00c8 0220     		movs	r0, #2
 1444              	.LVL108:
 873:Drivers/STM32F4xx_HAL_Driver/Src/stm32f4xx_hal_rtc_ex.c **** 
 1445              		.loc 1 873 3 view .LVU508
 1446 00ca FCE7     		b	.L81
 1447              		.cfi_endproc
 1448              	.LFE142:
 1450              		.section	.text.HAL_RTCEx_SetWakeUpTimer_IT,"ax",%progbits
 1451              		.align	1
 1452              		.global	HAL_RTCEx_SetWakeUpTimer_IT
 1453              		.syntax unified
 1454              		.thumb
 1455              		.thumb_func
 1457              	HAL_RTCEx_SetWakeUpTimer_IT:
 1458              	.LVL109:
 1459              	.LFB143:
 951:Drivers/STM32F4xx_HAL_Driver/Src/stm32f4xx_hal_rtc_ex.c **** 
 952:Drivers/STM32F4xx_HAL_Driver/Src/stm32f4xx_hal_rtc_ex.c **** /**
 953:Drivers/STM32F4xx_HAL_Driver/Src/stm32f4xx_hal_rtc_ex.c ****   * @brief  Sets wakeup timer with interrupt.
 954:Drivers/STM32F4xx_HAL_Driver/Src/stm32f4xx_hal_rtc_ex.c ****   * @param  hrtc pointer to a RTC_HandleTypeDef structure that contains
 955:Drivers/STM32F4xx_HAL_Driver/Src/stm32f4xx_hal_rtc_ex.c ****   *                the configuration information for RTC.
 956:Drivers/STM32F4xx_HAL_Driver/Src/stm32f4xx_hal_rtc_ex.c ****   * @param  WakeUpCounter Wakeup counter
 957:Drivers/STM32F4xx_HAL_Driver/Src/stm32f4xx_hal_rtc_ex.c ****   * @param  WakeUpClock Wakeup clock
 958:Drivers/STM32F4xx_HAL_Driver/Src/stm32f4xx_hal_rtc_ex.c ****   * @retval HAL status
 959:Drivers/STM32F4xx_HAL_Driver/Src/stm32f4xx_hal_rtc_ex.c ****   */
 960:Drivers/STM32F4xx_HAL_Driver/Src/stm32f4xx_hal_rtc_ex.c **** HAL_StatusTypeDef HAL_RTCEx_SetWakeUpTimer_IT(RTC_HandleTypeDef *hrtc, uint32_t WakeUpCounter, uint
 961:Drivers/STM32F4xx_HAL_Driver/Src/stm32f4xx_hal_rtc_ex.c **** {
 1460              		.loc 1 961 1 is_stmt 1 view -0
 1461              		.cfi_startproc
 1462              		@ args = 0, pretend = 0, frame = 8
 1463              		@ frame_needed = 0, uses_anonymous_args = 0
 1464              		@ link register save eliminated.
 1465              		.loc 1 961 1 is_stmt 0 view .LVU510
 1466 0000 70B4     		push	{r4, r5, r6}
 1467              		.cfi_def_cfa_offset 12
 1468              		.cfi_offset 4, -12
 1469              		.cfi_offset 5, -8
 1470              		.cfi_offset 6, -4
 1471 0002 83B0     		sub	sp, sp, #12
 1472              		.cfi_def_cfa_offset 24
 962:Drivers/STM32F4xx_HAL_Driver/Src/stm32f4xx_hal_rtc_ex.c ****   __IO uint32_t count  = RTC_TIMEOUT_VALUE * (SystemCoreClock / 32U / 1000U);
 1473              		.loc 1 962 3 is_stmt 1 view .LVU511
 1474              		.loc 1 962 69 is_stmt 0 view .LVU512
 1475 0004 3A4B     		ldr	r3, .L101
 1476 0006 1C68     		ldr	r4, [r3]
 1477 0008 3A4B     		ldr	r3, .L101+4
 1478 000a A3FB0434 		umull	r3, r4, r3, r4
 1479 000e E40A     		lsrs	r4, r4, #11
 1480              		.loc 1 962 44 view .LVU513
 1481 0010 4FF47A73 		mov	r3, #1000
 1482 0014 03FB04F4 		mul	r4, r3, r4
 1483              		.loc 1 962 17 view .LVU514
 1484 0018 0194     		str	r4, [sp, #4]
 963:Drivers/STM32F4xx_HAL_Driver/Src/stm32f4xx_hal_rtc_ex.c **** 
 964:Drivers/STM32F4xx_HAL_Driver/Src/stm32f4xx_hal_rtc_ex.c ****   /* Check the parameters */
 965:Drivers/STM32F4xx_HAL_Driver/Src/stm32f4xx_hal_rtc_ex.c ****   assert_param(IS_RTC_WAKEUP_CLOCK(WakeUpClock));
 1485              		.loc 1 965 3 is_stmt 1 view .LVU515
ARM GAS  /tmp/cckJJ7Hn.s 			page 45


 966:Drivers/STM32F4xx_HAL_Driver/Src/stm32f4xx_hal_rtc_ex.c ****   assert_param(IS_RTC_WAKEUP_COUNTER(WakeUpCounter));
 1486              		.loc 1 966 3 view .LVU516
 967:Drivers/STM32F4xx_HAL_Driver/Src/stm32f4xx_hal_rtc_ex.c **** 
 968:Drivers/STM32F4xx_HAL_Driver/Src/stm32f4xx_hal_rtc_ex.c ****   /* Process Locked */
 969:Drivers/STM32F4xx_HAL_Driver/Src/stm32f4xx_hal_rtc_ex.c ****   __HAL_LOCK(hrtc);
 1487              		.loc 1 969 3 view .LVU517
 1488              		.loc 1 969 3 view .LVU518
 1489 001a 037F     		ldrb	r3, [r0, #28]	@ zero_extendqisi2
 1490 001c 012B     		cmp	r3, #1
 1491 001e 65D0     		beq	.L97
 1492              		.loc 1 969 3 discriminator 2 view .LVU519
 1493 0020 0123     		movs	r3, #1
 1494 0022 0377     		strb	r3, [r0, #28]
 1495              		.loc 1 969 3 discriminator 2 view .LVU520
 970:Drivers/STM32F4xx_HAL_Driver/Src/stm32f4xx_hal_rtc_ex.c **** 
 971:Drivers/STM32F4xx_HAL_Driver/Src/stm32f4xx_hal_rtc_ex.c ****   hrtc->State = HAL_RTC_STATE_BUSY;
 1496              		.loc 1 971 3 discriminator 2 view .LVU521
 1497              		.loc 1 971 15 is_stmt 0 discriminator 2 view .LVU522
 1498 0024 0223     		movs	r3, #2
 1499 0026 4377     		strb	r3, [r0, #29]
 972:Drivers/STM32F4xx_HAL_Driver/Src/stm32f4xx_hal_rtc_ex.c **** 
 973:Drivers/STM32F4xx_HAL_Driver/Src/stm32f4xx_hal_rtc_ex.c ****   /* Disable the write protection for RTC registers */
 974:Drivers/STM32F4xx_HAL_Driver/Src/stm32f4xx_hal_rtc_ex.c ****   __HAL_RTC_WRITEPROTECTION_DISABLE(hrtc);
 1500              		.loc 1 974 3 is_stmt 1 discriminator 2 view .LVU523
 1501              		.loc 1 974 3 discriminator 2 view .LVU524
 1502 0028 0368     		ldr	r3, [r0]
 1503 002a CA25     		movs	r5, #202
 1504 002c 5D62     		str	r5, [r3, #36]
 1505              		.loc 1 974 3 discriminator 2 view .LVU525
 1506 002e 0368     		ldr	r3, [r0]
 1507 0030 5325     		movs	r5, #83
 1508 0032 5D62     		str	r5, [r3, #36]
 1509              		.loc 1 974 3 discriminator 2 view .LVU526
 975:Drivers/STM32F4xx_HAL_Driver/Src/stm32f4xx_hal_rtc_ex.c **** 
 976:Drivers/STM32F4xx_HAL_Driver/Src/stm32f4xx_hal_rtc_ex.c ****   /* Check RTC WUTWF flag is reset only when wakeup timer enabled */
 977:Drivers/STM32F4xx_HAL_Driver/Src/stm32f4xx_hal_rtc_ex.c ****   if ((hrtc->Instance->CR & RTC_CR_WUTE) != 0U)
 1510              		.loc 1 977 3 discriminator 2 view .LVU527
 1511              		.loc 1 977 12 is_stmt 0 discriminator 2 view .LVU528
 1512 0034 0668     		ldr	r6, [r0]
 1513              		.loc 1 977 22 discriminator 2 view .LVU529
 1514 0036 B368     		ldr	r3, [r6, #8]
 1515              		.loc 1 977 6 discriminator 2 view .LVU530
 1516 0038 13F4806F 		tst	r3, #1024
 1517 003c 08D0     		beq	.L92
 1518              	.L94:
 978:Drivers/STM32F4xx_HAL_Driver/Src/stm32f4xx_hal_rtc_ex.c ****   {
 979:Drivers/STM32F4xx_HAL_Driver/Src/stm32f4xx_hal_rtc_ex.c ****     /* Wait till RTC WUTWF flag is reset and if timeout is reached exit */
 980:Drivers/STM32F4xx_HAL_Driver/Src/stm32f4xx_hal_rtc_ex.c ****     do
 1519              		.loc 1 980 5 is_stmt 1 view .LVU531
 981:Drivers/STM32F4xx_HAL_Driver/Src/stm32f4xx_hal_rtc_ex.c ****     {
 982:Drivers/STM32F4xx_HAL_Driver/Src/stm32f4xx_hal_rtc_ex.c ****       if (count-- == 0U)
 1520              		.loc 1 982 7 view .LVU532
 1521              		.loc 1 982 16 is_stmt 0 view .LVU533
 1522 003e 019B     		ldr	r3, [sp, #4]
 1523 0040 5D1E     		subs	r5, r3, #1
 1524 0042 0195     		str	r5, [sp, #4]
 1525              		.loc 1 982 10 view .LVU534
ARM GAS  /tmp/cckJJ7Hn.s 			page 46


 1526 0044 002B     		cmp	r3, #0
 1527 0046 3ED0     		beq	.L99
 983:Drivers/STM32F4xx_HAL_Driver/Src/stm32f4xx_hal_rtc_ex.c ****       {
 984:Drivers/STM32F4xx_HAL_Driver/Src/stm32f4xx_hal_rtc_ex.c ****         /* Enable the write protection for RTC registers */
 985:Drivers/STM32F4xx_HAL_Driver/Src/stm32f4xx_hal_rtc_ex.c ****         __HAL_RTC_WRITEPROTECTION_ENABLE(hrtc);
 986:Drivers/STM32F4xx_HAL_Driver/Src/stm32f4xx_hal_rtc_ex.c **** 
 987:Drivers/STM32F4xx_HAL_Driver/Src/stm32f4xx_hal_rtc_ex.c ****         hrtc->State = HAL_RTC_STATE_TIMEOUT;
 988:Drivers/STM32F4xx_HAL_Driver/Src/stm32f4xx_hal_rtc_ex.c **** 
 989:Drivers/STM32F4xx_HAL_Driver/Src/stm32f4xx_hal_rtc_ex.c ****         /* Process Unlocked */
 990:Drivers/STM32F4xx_HAL_Driver/Src/stm32f4xx_hal_rtc_ex.c ****         __HAL_UNLOCK(hrtc);
 991:Drivers/STM32F4xx_HAL_Driver/Src/stm32f4xx_hal_rtc_ex.c **** 
 992:Drivers/STM32F4xx_HAL_Driver/Src/stm32f4xx_hal_rtc_ex.c ****         return HAL_TIMEOUT;
 993:Drivers/STM32F4xx_HAL_Driver/Src/stm32f4xx_hal_rtc_ex.c ****       }
 994:Drivers/STM32F4xx_HAL_Driver/Src/stm32f4xx_hal_rtc_ex.c ****     } while (__HAL_RTC_WAKEUPTIMER_GET_FLAG(hrtc, RTC_FLAG_WUTWF) != 0U);
 1528              		.loc 1 994 13 is_stmt 1 view .LVU535
 1529              		.loc 1 994 14 is_stmt 0 view .LVU536
 1530 0048 F368     		ldr	r3, [r6, #12]
 1531              		.loc 1 994 5 view .LVU537
 1532 004a 13F0040F 		tst	r3, #4
 1533 004e F6D1     		bne	.L94
 1534              	.L92:
 995:Drivers/STM32F4xx_HAL_Driver/Src/stm32f4xx_hal_rtc_ex.c ****   }
 996:Drivers/STM32F4xx_HAL_Driver/Src/stm32f4xx_hal_rtc_ex.c **** 
 997:Drivers/STM32F4xx_HAL_Driver/Src/stm32f4xx_hal_rtc_ex.c ****   /* Disable the Wakeup timer */
 998:Drivers/STM32F4xx_HAL_Driver/Src/stm32f4xx_hal_rtc_ex.c ****   __HAL_RTC_WAKEUPTIMER_DISABLE(hrtc);
 1535              		.loc 1 998 3 is_stmt 1 view .LVU538
 1536 0050 B368     		ldr	r3, [r6, #8]
 1537 0052 23F48063 		bic	r3, r3, #1024
 1538 0056 B360     		str	r3, [r6, #8]
 999:Drivers/STM32F4xx_HAL_Driver/Src/stm32f4xx_hal_rtc_ex.c **** 
1000:Drivers/STM32F4xx_HAL_Driver/Src/stm32f4xx_hal_rtc_ex.c ****   /* Clear the Wakeup flag */
1001:Drivers/STM32F4xx_HAL_Driver/Src/stm32f4xx_hal_rtc_ex.c ****   __HAL_RTC_WAKEUPTIMER_CLEAR_FLAG(hrtc, RTC_FLAG_WUTF);
 1539              		.loc 1 1001 3 view .LVU539
 1540 0058 0568     		ldr	r5, [r0]
 1541 005a EB68     		ldr	r3, [r5, #12]
 1542 005c DBB2     		uxtb	r3, r3
 1543 005e 63F49063 		orn	r3, r3, #1152
 1544 0062 EB60     		str	r3, [r5, #12]
1002:Drivers/STM32F4xx_HAL_Driver/Src/stm32f4xx_hal_rtc_ex.c **** 
1003:Drivers/STM32F4xx_HAL_Driver/Src/stm32f4xx_hal_rtc_ex.c ****   /* Reload the counter */
1004:Drivers/STM32F4xx_HAL_Driver/Src/stm32f4xx_hal_rtc_ex.c ****   count = RTC_TIMEOUT_VALUE * (SystemCoreClock / 32U / 1000U);
 1545              		.loc 1 1004 3 view .LVU540
 1546              		.loc 1 1004 9 is_stmt 0 view .LVU541
 1547 0064 0194     		str	r4, [sp, #4]
 1548              	.L96:
1005:Drivers/STM32F4xx_HAL_Driver/Src/stm32f4xx_hal_rtc_ex.c **** 
1006:Drivers/STM32F4xx_HAL_Driver/Src/stm32f4xx_hal_rtc_ex.c ****   /* Wait till RTC WUTWF flag is set and if timeout is reached exit */
1007:Drivers/STM32F4xx_HAL_Driver/Src/stm32f4xx_hal_rtc_ex.c ****   do
 1549              		.loc 1 1007 3 is_stmt 1 view .LVU542
1008:Drivers/STM32F4xx_HAL_Driver/Src/stm32f4xx_hal_rtc_ex.c ****   {
1009:Drivers/STM32F4xx_HAL_Driver/Src/stm32f4xx_hal_rtc_ex.c ****     if (count-- == 0U)
 1550              		.loc 1 1009 5 view .LVU543
 1551              		.loc 1 1009 14 is_stmt 0 view .LVU544
 1552 0066 019B     		ldr	r3, [sp, #4]
 1553 0068 5C1E     		subs	r4, r3, #1
 1554 006a 0194     		str	r4, [sp, #4]
 1555              		.loc 1 1009 8 view .LVU545
ARM GAS  /tmp/cckJJ7Hn.s 			page 47


 1556 006c 002B     		cmp	r3, #0
 1557 006e 32D0     		beq	.L100
1010:Drivers/STM32F4xx_HAL_Driver/Src/stm32f4xx_hal_rtc_ex.c ****     {
1011:Drivers/STM32F4xx_HAL_Driver/Src/stm32f4xx_hal_rtc_ex.c ****       /* Enable the write protection for RTC registers */
1012:Drivers/STM32F4xx_HAL_Driver/Src/stm32f4xx_hal_rtc_ex.c ****       __HAL_RTC_WRITEPROTECTION_ENABLE(hrtc);
1013:Drivers/STM32F4xx_HAL_Driver/Src/stm32f4xx_hal_rtc_ex.c **** 
1014:Drivers/STM32F4xx_HAL_Driver/Src/stm32f4xx_hal_rtc_ex.c ****       hrtc->State = HAL_RTC_STATE_TIMEOUT;
1015:Drivers/STM32F4xx_HAL_Driver/Src/stm32f4xx_hal_rtc_ex.c **** 
1016:Drivers/STM32F4xx_HAL_Driver/Src/stm32f4xx_hal_rtc_ex.c ****       /* Process Unlocked */
1017:Drivers/STM32F4xx_HAL_Driver/Src/stm32f4xx_hal_rtc_ex.c ****       __HAL_UNLOCK(hrtc);
1018:Drivers/STM32F4xx_HAL_Driver/Src/stm32f4xx_hal_rtc_ex.c **** 
1019:Drivers/STM32F4xx_HAL_Driver/Src/stm32f4xx_hal_rtc_ex.c ****       return HAL_TIMEOUT;
1020:Drivers/STM32F4xx_HAL_Driver/Src/stm32f4xx_hal_rtc_ex.c ****     }
1021:Drivers/STM32F4xx_HAL_Driver/Src/stm32f4xx_hal_rtc_ex.c ****   } while (__HAL_RTC_WAKEUPTIMER_GET_FLAG(hrtc, RTC_FLAG_WUTWF) == 0U);
 1558              		.loc 1 1021 11 is_stmt 1 view .LVU546
 1559              		.loc 1 1021 12 is_stmt 0 view .LVU547
 1560 0070 0368     		ldr	r3, [r0]
 1561 0072 DC68     		ldr	r4, [r3, #12]
 1562              		.loc 1 1021 3 view .LVU548
 1563 0074 14F0040F 		tst	r4, #4
 1564 0078 F5D0     		beq	.L96
1022:Drivers/STM32F4xx_HAL_Driver/Src/stm32f4xx_hal_rtc_ex.c **** 
1023:Drivers/STM32F4xx_HAL_Driver/Src/stm32f4xx_hal_rtc_ex.c ****   /* Clear the Wakeup Timer clock source bits in CR register */
1024:Drivers/STM32F4xx_HAL_Driver/Src/stm32f4xx_hal_rtc_ex.c ****   hrtc->Instance->CR &= (uint32_t)~RTC_CR_WUCKSEL;
 1565              		.loc 1 1024 3 is_stmt 1 view .LVU549
 1566              		.loc 1 1024 22 is_stmt 0 view .LVU550
 1567 007a 9C68     		ldr	r4, [r3, #8]
 1568 007c 24F00704 		bic	r4, r4, #7
 1569 0080 9C60     		str	r4, [r3, #8]
1025:Drivers/STM32F4xx_HAL_Driver/Src/stm32f4xx_hal_rtc_ex.c **** 
1026:Drivers/STM32F4xx_HAL_Driver/Src/stm32f4xx_hal_rtc_ex.c ****   /* Configure the clock source */
1027:Drivers/STM32F4xx_HAL_Driver/Src/stm32f4xx_hal_rtc_ex.c ****   hrtc->Instance->CR |= (uint32_t)WakeUpClock;
 1570              		.loc 1 1027 3 is_stmt 1 view .LVU551
 1571              		.loc 1 1027 7 is_stmt 0 view .LVU552
 1572 0082 0468     		ldr	r4, [r0]
 1573              		.loc 1 1027 22 view .LVU553
 1574 0084 A368     		ldr	r3, [r4, #8]
 1575 0086 1A43     		orrs	r2, r2, r3
 1576              	.LVL110:
 1577              		.loc 1 1027 22 view .LVU554
 1578 0088 A260     		str	r2, [r4, #8]
1028:Drivers/STM32F4xx_HAL_Driver/Src/stm32f4xx_hal_rtc_ex.c **** 
1029:Drivers/STM32F4xx_HAL_Driver/Src/stm32f4xx_hal_rtc_ex.c ****   /* Configure the Wakeup Timer counter */
1030:Drivers/STM32F4xx_HAL_Driver/Src/stm32f4xx_hal_rtc_ex.c ****   hrtc->Instance->WUTR = (uint32_t)WakeUpCounter;
 1579              		.loc 1 1030 3 is_stmt 1 view .LVU555
 1580              		.loc 1 1030 7 is_stmt 0 view .LVU556
 1581 008a 0368     		ldr	r3, [r0]
 1582              		.loc 1 1030 24 view .LVU557
 1583 008c 5961     		str	r1, [r3, #20]
1031:Drivers/STM32F4xx_HAL_Driver/Src/stm32f4xx_hal_rtc_ex.c **** 
1032:Drivers/STM32F4xx_HAL_Driver/Src/stm32f4xx_hal_rtc_ex.c ****   /* RTC wakeup timer Interrupt Configuration: EXTI configuration */
1033:Drivers/STM32F4xx_HAL_Driver/Src/stm32f4xx_hal_rtc_ex.c ****   __HAL_RTC_WAKEUPTIMER_EXTI_ENABLE_IT();
 1584              		.loc 1 1033 3 is_stmt 1 view .LVU558
 1585 008e 1A4B     		ldr	r3, .L101+8
 1586 0090 1A68     		ldr	r2, [r3]
 1587 0092 42F48002 		orr	r2, r2, #4194304
 1588 0096 1A60     		str	r2, [r3]
ARM GAS  /tmp/cckJJ7Hn.s 			page 48


1034:Drivers/STM32F4xx_HAL_Driver/Src/stm32f4xx_hal_rtc_ex.c ****   __HAL_RTC_WAKEUPTIMER_EXTI_ENABLE_RISING_EDGE();
 1589              		.loc 1 1034 3 view .LVU559
 1590 0098 9A68     		ldr	r2, [r3, #8]
 1591 009a 42F48002 		orr	r2, r2, #4194304
 1592 009e 9A60     		str	r2, [r3, #8]
1035:Drivers/STM32F4xx_HAL_Driver/Src/stm32f4xx_hal_rtc_ex.c **** 
1036:Drivers/STM32F4xx_HAL_Driver/Src/stm32f4xx_hal_rtc_ex.c ****   /* Configure the interrupt in the RTC_CR register */
1037:Drivers/STM32F4xx_HAL_Driver/Src/stm32f4xx_hal_rtc_ex.c ****   __HAL_RTC_WAKEUPTIMER_ENABLE_IT(hrtc, RTC_IT_WUT);
 1593              		.loc 1 1037 3 view .LVU560
 1594 00a0 0268     		ldr	r2, [r0]
 1595 00a2 9368     		ldr	r3, [r2, #8]
 1596 00a4 43F48043 		orr	r3, r3, #16384
 1597 00a8 9360     		str	r3, [r2, #8]
1038:Drivers/STM32F4xx_HAL_Driver/Src/stm32f4xx_hal_rtc_ex.c **** 
1039:Drivers/STM32F4xx_HAL_Driver/Src/stm32f4xx_hal_rtc_ex.c ****   /* Enable the Wakeup Timer */
1040:Drivers/STM32F4xx_HAL_Driver/Src/stm32f4xx_hal_rtc_ex.c ****   __HAL_RTC_WAKEUPTIMER_ENABLE(hrtc);
 1598              		.loc 1 1040 3 view .LVU561
 1599 00aa 0268     		ldr	r2, [r0]
 1600 00ac 9368     		ldr	r3, [r2, #8]
 1601 00ae 43F48063 		orr	r3, r3, #1024
 1602 00b2 9360     		str	r3, [r2, #8]
1041:Drivers/STM32F4xx_HAL_Driver/Src/stm32f4xx_hal_rtc_ex.c **** 
1042:Drivers/STM32F4xx_HAL_Driver/Src/stm32f4xx_hal_rtc_ex.c ****   /* Enable the write protection for RTC registers */
1043:Drivers/STM32F4xx_HAL_Driver/Src/stm32f4xx_hal_rtc_ex.c ****   __HAL_RTC_WRITEPROTECTION_ENABLE(hrtc);
 1603              		.loc 1 1043 3 view .LVU562
 1604              		.loc 1 1043 3 view .LVU563
 1605 00b4 0368     		ldr	r3, [r0]
 1606 00b6 FF22     		movs	r2, #255
 1607 00b8 5A62     		str	r2, [r3, #36]
 1608              		.loc 1 1043 3 view .LVU564
1044:Drivers/STM32F4xx_HAL_Driver/Src/stm32f4xx_hal_rtc_ex.c **** 
1045:Drivers/STM32F4xx_HAL_Driver/Src/stm32f4xx_hal_rtc_ex.c ****   hrtc->State = HAL_RTC_STATE_READY;
 1609              		.loc 1 1045 3 view .LVU565
 1610              		.loc 1 1045 15 is_stmt 0 view .LVU566
 1611 00ba 0123     		movs	r3, #1
 1612 00bc 4377     		strb	r3, [r0, #29]
1046:Drivers/STM32F4xx_HAL_Driver/Src/stm32f4xx_hal_rtc_ex.c **** 
1047:Drivers/STM32F4xx_HAL_Driver/Src/stm32f4xx_hal_rtc_ex.c ****   /* Process Unlocked */
1048:Drivers/STM32F4xx_HAL_Driver/Src/stm32f4xx_hal_rtc_ex.c ****   __HAL_UNLOCK(hrtc);
 1613              		.loc 1 1048 3 is_stmt 1 view .LVU567
 1614              		.loc 1 1048 3 view .LVU568
 1615 00be 0023     		movs	r3, #0
 1616 00c0 0377     		strb	r3, [r0, #28]
 1617              		.loc 1 1048 3 view .LVU569
1049:Drivers/STM32F4xx_HAL_Driver/Src/stm32f4xx_hal_rtc_ex.c **** 
1050:Drivers/STM32F4xx_HAL_Driver/Src/stm32f4xx_hal_rtc_ex.c ****   return HAL_OK;
 1618              		.loc 1 1050 3 view .LVU570
 1619              		.loc 1 1050 10 is_stmt 0 view .LVU571
 1620 00c2 1846     		mov	r0, r3
 1621              	.LVL111:
 1622              		.loc 1 1050 10 view .LVU572
 1623 00c4 0FE0     		b	.L91
 1624              	.LVL112:
 1625              	.L99:
 985:Drivers/STM32F4xx_HAL_Driver/Src/stm32f4xx_hal_rtc_ex.c **** 
 1626              		.loc 1 985 9 is_stmt 1 view .LVU573
 985:Drivers/STM32F4xx_HAL_Driver/Src/stm32f4xx_hal_rtc_ex.c **** 
ARM GAS  /tmp/cckJJ7Hn.s 			page 49


 1627              		.loc 1 985 9 view .LVU574
 1628 00c6 FF23     		movs	r3, #255
 1629 00c8 7362     		str	r3, [r6, #36]
 985:Drivers/STM32F4xx_HAL_Driver/Src/stm32f4xx_hal_rtc_ex.c **** 
 1630              		.loc 1 985 9 view .LVU575
 987:Drivers/STM32F4xx_HAL_Driver/Src/stm32f4xx_hal_rtc_ex.c **** 
 1631              		.loc 1 987 9 view .LVU576
 987:Drivers/STM32F4xx_HAL_Driver/Src/stm32f4xx_hal_rtc_ex.c **** 
 1632              		.loc 1 987 21 is_stmt 0 view .LVU577
 1633 00ca 0323     		movs	r3, #3
 1634 00cc 4377     		strb	r3, [r0, #29]
 990:Drivers/STM32F4xx_HAL_Driver/Src/stm32f4xx_hal_rtc_ex.c **** 
 1635              		.loc 1 990 9 is_stmt 1 view .LVU578
 990:Drivers/STM32F4xx_HAL_Driver/Src/stm32f4xx_hal_rtc_ex.c **** 
 1636              		.loc 1 990 9 view .LVU579
 1637 00ce 0022     		movs	r2, #0
 1638              	.LVL113:
 990:Drivers/STM32F4xx_HAL_Driver/Src/stm32f4xx_hal_rtc_ex.c **** 
 1639              		.loc 1 990 9 is_stmt 0 view .LVU580
 1640 00d0 0277     		strb	r2, [r0, #28]
 990:Drivers/STM32F4xx_HAL_Driver/Src/stm32f4xx_hal_rtc_ex.c **** 
 1641              		.loc 1 990 9 is_stmt 1 view .LVU581
 992:Drivers/STM32F4xx_HAL_Driver/Src/stm32f4xx_hal_rtc_ex.c ****       }
 1642              		.loc 1 992 9 view .LVU582
 992:Drivers/STM32F4xx_HAL_Driver/Src/stm32f4xx_hal_rtc_ex.c ****       }
 1643              		.loc 1 992 16 is_stmt 0 view .LVU583
 1644 00d2 1846     		mov	r0, r3
 1645              	.LVL114:
 992:Drivers/STM32F4xx_HAL_Driver/Src/stm32f4xx_hal_rtc_ex.c ****       }
 1646              		.loc 1 992 16 view .LVU584
 1647 00d4 07E0     		b	.L91
 1648              	.LVL115:
 1649              	.L100:
1012:Drivers/STM32F4xx_HAL_Driver/Src/stm32f4xx_hal_rtc_ex.c **** 
 1650              		.loc 1 1012 7 is_stmt 1 view .LVU585
1012:Drivers/STM32F4xx_HAL_Driver/Src/stm32f4xx_hal_rtc_ex.c **** 
 1651              		.loc 1 1012 7 view .LVU586
 1652 00d6 0368     		ldr	r3, [r0]
 1653 00d8 FF22     		movs	r2, #255
 1654              	.LVL116:
1012:Drivers/STM32F4xx_HAL_Driver/Src/stm32f4xx_hal_rtc_ex.c **** 
 1655              		.loc 1 1012 7 is_stmt 0 view .LVU587
 1656 00da 5A62     		str	r2, [r3, #36]
1012:Drivers/STM32F4xx_HAL_Driver/Src/stm32f4xx_hal_rtc_ex.c **** 
 1657              		.loc 1 1012 7 is_stmt 1 view .LVU588
1014:Drivers/STM32F4xx_HAL_Driver/Src/stm32f4xx_hal_rtc_ex.c **** 
 1658              		.loc 1 1014 7 view .LVU589
1014:Drivers/STM32F4xx_HAL_Driver/Src/stm32f4xx_hal_rtc_ex.c **** 
 1659              		.loc 1 1014 19 is_stmt 0 view .LVU590
 1660 00dc 0323     		movs	r3, #3
 1661 00de 4377     		strb	r3, [r0, #29]
1017:Drivers/STM32F4xx_HAL_Driver/Src/stm32f4xx_hal_rtc_ex.c **** 
 1662              		.loc 1 1017 7 is_stmt 1 view .LVU591
1017:Drivers/STM32F4xx_HAL_Driver/Src/stm32f4xx_hal_rtc_ex.c **** 
 1663              		.loc 1 1017 7 view .LVU592
 1664 00e0 0022     		movs	r2, #0
 1665 00e2 0277     		strb	r2, [r0, #28]
ARM GAS  /tmp/cckJJ7Hn.s 			page 50


1017:Drivers/STM32F4xx_HAL_Driver/Src/stm32f4xx_hal_rtc_ex.c **** 
 1666              		.loc 1 1017 7 view .LVU593
1019:Drivers/STM32F4xx_HAL_Driver/Src/stm32f4xx_hal_rtc_ex.c ****     }
 1667              		.loc 1 1019 7 view .LVU594
1019:Drivers/STM32F4xx_HAL_Driver/Src/stm32f4xx_hal_rtc_ex.c ****     }
 1668              		.loc 1 1019 14 is_stmt 0 view .LVU595
 1669 00e4 1846     		mov	r0, r3
 1670              	.LVL117:
 1671              	.L91:
1051:Drivers/STM32F4xx_HAL_Driver/Src/stm32f4xx_hal_rtc_ex.c **** }
 1672              		.loc 1 1051 1 view .LVU596
 1673 00e6 03B0     		add	sp, sp, #12
 1674              		.cfi_remember_state
 1675              		.cfi_def_cfa_offset 12
 1676              		@ sp needed
 1677 00e8 70BC     		pop	{r4, r5, r6}
 1678              		.cfi_restore 6
 1679              		.cfi_restore 5
 1680              		.cfi_restore 4
 1681              		.cfi_def_cfa_offset 0
 1682 00ea 7047     		bx	lr
 1683              	.LVL118:
 1684              	.L97:
 1685              		.cfi_restore_state
 969:Drivers/STM32F4xx_HAL_Driver/Src/stm32f4xx_hal_rtc_ex.c **** 
 1686              		.loc 1 969 3 view .LVU597
 1687 00ec 0220     		movs	r0, #2
 1688              	.LVL119:
 969:Drivers/STM32F4xx_HAL_Driver/Src/stm32f4xx_hal_rtc_ex.c **** 
 1689              		.loc 1 969 3 view .LVU598
 1690 00ee FAE7     		b	.L91
 1691              	.L102:
 1692              		.align	2
 1693              	.L101:
 1694 00f0 00000000 		.word	SystemCoreClock
 1695 00f4 D34D6210 		.word	274877907
 1696 00f8 003C0140 		.word	1073822720
 1697              		.cfi_endproc
 1698              	.LFE143:
 1700              		.section	.text.HAL_RTCEx_DeactivateWakeUpTimer,"ax",%progbits
 1701              		.align	1
 1702              		.global	HAL_RTCEx_DeactivateWakeUpTimer
 1703              		.syntax unified
 1704              		.thumb
 1705              		.thumb_func
 1707              	HAL_RTCEx_DeactivateWakeUpTimer:
 1708              	.LVL120:
 1709              	.LFB144:
1052:Drivers/STM32F4xx_HAL_Driver/Src/stm32f4xx_hal_rtc_ex.c **** 
1053:Drivers/STM32F4xx_HAL_Driver/Src/stm32f4xx_hal_rtc_ex.c **** /**
1054:Drivers/STM32F4xx_HAL_Driver/Src/stm32f4xx_hal_rtc_ex.c ****   * @brief  Deactivates wakeup timer counter.
1055:Drivers/STM32F4xx_HAL_Driver/Src/stm32f4xx_hal_rtc_ex.c ****   * @param  hrtc pointer to a RTC_HandleTypeDef structure that contains
1056:Drivers/STM32F4xx_HAL_Driver/Src/stm32f4xx_hal_rtc_ex.c ****   *                the configuration information for RTC.
1057:Drivers/STM32F4xx_HAL_Driver/Src/stm32f4xx_hal_rtc_ex.c ****   * @retval HAL status
1058:Drivers/STM32F4xx_HAL_Driver/Src/stm32f4xx_hal_rtc_ex.c ****   */
1059:Drivers/STM32F4xx_HAL_Driver/Src/stm32f4xx_hal_rtc_ex.c **** HAL_StatusTypeDef HAL_RTCEx_DeactivateWakeUpTimer(RTC_HandleTypeDef *hrtc)
1060:Drivers/STM32F4xx_HAL_Driver/Src/stm32f4xx_hal_rtc_ex.c **** {
ARM GAS  /tmp/cckJJ7Hn.s 			page 51


 1710              		.loc 1 1060 1 is_stmt 1 view -0
 1711              		.cfi_startproc
 1712              		@ args = 0, pretend = 0, frame = 0
 1713              		@ frame_needed = 0, uses_anonymous_args = 0
 1714              		.loc 1 1060 1 is_stmt 0 view .LVU600
 1715 0000 38B5     		push	{r3, r4, r5, lr}
 1716              		.cfi_def_cfa_offset 16
 1717              		.cfi_offset 3, -16
 1718              		.cfi_offset 4, -12
 1719              		.cfi_offset 5, -8
 1720              		.cfi_offset 14, -4
1061:Drivers/STM32F4xx_HAL_Driver/Src/stm32f4xx_hal_rtc_ex.c ****   uint32_t tickstart = 0U;
 1721              		.loc 1 1061 3 is_stmt 1 view .LVU601
 1722              	.LVL121:
1062:Drivers/STM32F4xx_HAL_Driver/Src/stm32f4xx_hal_rtc_ex.c **** 
1063:Drivers/STM32F4xx_HAL_Driver/Src/stm32f4xx_hal_rtc_ex.c ****   /* Process Locked */
1064:Drivers/STM32F4xx_HAL_Driver/Src/stm32f4xx_hal_rtc_ex.c ****   __HAL_LOCK(hrtc);
 1723              		.loc 1 1064 3 view .LVU602
 1724              		.loc 1 1064 3 view .LVU603
 1725 0002 037F     		ldrb	r3, [r0, #28]	@ zero_extendqisi2
 1726 0004 012B     		cmp	r3, #1
 1727 0006 31D0     		beq	.L107
 1728 0008 0446     		mov	r4, r0
 1729              		.loc 1 1064 3 discriminator 2 view .LVU604
 1730 000a 0123     		movs	r3, #1
 1731 000c 0377     		strb	r3, [r0, #28]
 1732              		.loc 1 1064 3 discriminator 2 view .LVU605
1065:Drivers/STM32F4xx_HAL_Driver/Src/stm32f4xx_hal_rtc_ex.c **** 
1066:Drivers/STM32F4xx_HAL_Driver/Src/stm32f4xx_hal_rtc_ex.c ****   hrtc->State = HAL_RTC_STATE_BUSY;
 1733              		.loc 1 1066 3 discriminator 2 view .LVU606
 1734              		.loc 1 1066 15 is_stmt 0 discriminator 2 view .LVU607
 1735 000e 0223     		movs	r3, #2
 1736 0010 4377     		strb	r3, [r0, #29]
1067:Drivers/STM32F4xx_HAL_Driver/Src/stm32f4xx_hal_rtc_ex.c **** 
1068:Drivers/STM32F4xx_HAL_Driver/Src/stm32f4xx_hal_rtc_ex.c ****   /* Disable the write protection for RTC registers */
1069:Drivers/STM32F4xx_HAL_Driver/Src/stm32f4xx_hal_rtc_ex.c ****   __HAL_RTC_WRITEPROTECTION_DISABLE(hrtc);
 1737              		.loc 1 1069 3 is_stmt 1 discriminator 2 view .LVU608
 1738              		.loc 1 1069 3 discriminator 2 view .LVU609
 1739 0012 0368     		ldr	r3, [r0]
 1740 0014 CA22     		movs	r2, #202
 1741 0016 5A62     		str	r2, [r3, #36]
 1742              		.loc 1 1069 3 discriminator 2 view .LVU610
 1743 0018 0368     		ldr	r3, [r0]
 1744 001a 5322     		movs	r2, #83
 1745 001c 5A62     		str	r2, [r3, #36]
 1746              		.loc 1 1069 3 discriminator 2 view .LVU611
1070:Drivers/STM32F4xx_HAL_Driver/Src/stm32f4xx_hal_rtc_ex.c **** 
1071:Drivers/STM32F4xx_HAL_Driver/Src/stm32f4xx_hal_rtc_ex.c ****   /* Disable the Wakeup Timer */
1072:Drivers/STM32F4xx_HAL_Driver/Src/stm32f4xx_hal_rtc_ex.c ****   __HAL_RTC_WAKEUPTIMER_DISABLE(hrtc);
 1747              		.loc 1 1072 3 discriminator 2 view .LVU612
 1748 001e 0268     		ldr	r2, [r0]
 1749 0020 9368     		ldr	r3, [r2, #8]
 1750 0022 23F48063 		bic	r3, r3, #1024
 1751 0026 9360     		str	r3, [r2, #8]
1073:Drivers/STM32F4xx_HAL_Driver/Src/stm32f4xx_hal_rtc_ex.c **** 
1074:Drivers/STM32F4xx_HAL_Driver/Src/stm32f4xx_hal_rtc_ex.c ****   /* In case of interrupt mode is used, the interrupt source must disabled */
1075:Drivers/STM32F4xx_HAL_Driver/Src/stm32f4xx_hal_rtc_ex.c ****   __HAL_RTC_WAKEUPTIMER_DISABLE_IT(hrtc, RTC_IT_WUT);
ARM GAS  /tmp/cckJJ7Hn.s 			page 52


 1752              		.loc 1 1075 3 discriminator 2 view .LVU613
 1753 0028 0268     		ldr	r2, [r0]
 1754 002a 9368     		ldr	r3, [r2, #8]
 1755 002c 23F48043 		bic	r3, r3, #16384
 1756 0030 9360     		str	r3, [r2, #8]
1076:Drivers/STM32F4xx_HAL_Driver/Src/stm32f4xx_hal_rtc_ex.c **** 
1077:Drivers/STM32F4xx_HAL_Driver/Src/stm32f4xx_hal_rtc_ex.c ****   /* Get tick */
1078:Drivers/STM32F4xx_HAL_Driver/Src/stm32f4xx_hal_rtc_ex.c ****   tickstart = HAL_GetTick();
 1757              		.loc 1 1078 3 discriminator 2 view .LVU614
 1758              		.loc 1 1078 15 is_stmt 0 discriminator 2 view .LVU615
 1759 0032 FFF7FEFF 		bl	HAL_GetTick
 1760              	.LVL122:
 1761              		.loc 1 1078 15 discriminator 2 view .LVU616
 1762 0036 0546     		mov	r5, r0
 1763              	.LVL123:
1079:Drivers/STM32F4xx_HAL_Driver/Src/stm32f4xx_hal_rtc_ex.c **** 
1080:Drivers/STM32F4xx_HAL_Driver/Src/stm32f4xx_hal_rtc_ex.c ****   /* Wait till RTC WUTWF flag is set and if timeout is reached exit */
1081:Drivers/STM32F4xx_HAL_Driver/Src/stm32f4xx_hal_rtc_ex.c ****   while (__HAL_RTC_WAKEUPTIMER_GET_FLAG(hrtc, RTC_FLAG_WUTWF) == 0U)
 1764              		.loc 1 1081 3 is_stmt 1 discriminator 2 view .LVU617
 1765              	.L105:
 1766              		.loc 1 1081 9 view .LVU618
 1767              		.loc 1 1081 10 is_stmt 0 view .LVU619
 1768 0038 2368     		ldr	r3, [r4]
 1769 003a DA68     		ldr	r2, [r3, #12]
 1770              		.loc 1 1081 9 view .LVU620
 1771 003c 12F0040F 		tst	r2, #4
 1772 0040 0DD1     		bne	.L109
1082:Drivers/STM32F4xx_HAL_Driver/Src/stm32f4xx_hal_rtc_ex.c ****   {
1083:Drivers/STM32F4xx_HAL_Driver/Src/stm32f4xx_hal_rtc_ex.c ****     if ((HAL_GetTick() - tickstart) > RTC_TIMEOUT_VALUE)
 1773              		.loc 1 1083 5 is_stmt 1 view .LVU621
 1774              		.loc 1 1083 10 is_stmt 0 view .LVU622
 1775 0042 FFF7FEFF 		bl	HAL_GetTick
 1776              	.LVL124:
 1777              		.loc 1 1083 24 view .LVU623
 1778 0046 431B     		subs	r3, r0, r5
 1779              		.loc 1 1083 8 view .LVU624
 1780 0048 B3F57A7F 		cmp	r3, #1000
 1781 004c F4D9     		bls	.L105
1084:Drivers/STM32F4xx_HAL_Driver/Src/stm32f4xx_hal_rtc_ex.c ****     {
1085:Drivers/STM32F4xx_HAL_Driver/Src/stm32f4xx_hal_rtc_ex.c ****       /* Enable the write protection for RTC registers */
1086:Drivers/STM32F4xx_HAL_Driver/Src/stm32f4xx_hal_rtc_ex.c ****       __HAL_RTC_WRITEPROTECTION_ENABLE(hrtc);
 1782              		.loc 1 1086 7 is_stmt 1 view .LVU625
 1783              		.loc 1 1086 7 view .LVU626
 1784 004e 2368     		ldr	r3, [r4]
 1785 0050 FF22     		movs	r2, #255
 1786 0052 5A62     		str	r2, [r3, #36]
 1787              		.loc 1 1086 7 view .LVU627
1087:Drivers/STM32F4xx_HAL_Driver/Src/stm32f4xx_hal_rtc_ex.c **** 
1088:Drivers/STM32F4xx_HAL_Driver/Src/stm32f4xx_hal_rtc_ex.c ****       hrtc->State = HAL_RTC_STATE_TIMEOUT;
 1788              		.loc 1 1088 7 view .LVU628
 1789              		.loc 1 1088 19 is_stmt 0 view .LVU629
 1790 0054 0320     		movs	r0, #3
 1791 0056 6077     		strb	r0, [r4, #29]
1089:Drivers/STM32F4xx_HAL_Driver/Src/stm32f4xx_hal_rtc_ex.c **** 
1090:Drivers/STM32F4xx_HAL_Driver/Src/stm32f4xx_hal_rtc_ex.c ****       /* Process Unlocked */
1091:Drivers/STM32F4xx_HAL_Driver/Src/stm32f4xx_hal_rtc_ex.c ****       __HAL_UNLOCK(hrtc);
 1792              		.loc 1 1091 7 is_stmt 1 view .LVU630
ARM GAS  /tmp/cckJJ7Hn.s 			page 53


 1793              		.loc 1 1091 7 view .LVU631
 1794 0058 0023     		movs	r3, #0
 1795 005a 2377     		strb	r3, [r4, #28]
 1796              		.loc 1 1091 7 view .LVU632
1092:Drivers/STM32F4xx_HAL_Driver/Src/stm32f4xx_hal_rtc_ex.c **** 
1093:Drivers/STM32F4xx_HAL_Driver/Src/stm32f4xx_hal_rtc_ex.c ****       return HAL_TIMEOUT;
 1797              		.loc 1 1093 7 view .LVU633
 1798              		.loc 1 1093 14 is_stmt 0 view .LVU634
 1799 005c 05E0     		b	.L104
 1800              	.L109:
1094:Drivers/STM32F4xx_HAL_Driver/Src/stm32f4xx_hal_rtc_ex.c ****     }
1095:Drivers/STM32F4xx_HAL_Driver/Src/stm32f4xx_hal_rtc_ex.c ****   }
1096:Drivers/STM32F4xx_HAL_Driver/Src/stm32f4xx_hal_rtc_ex.c **** 
1097:Drivers/STM32F4xx_HAL_Driver/Src/stm32f4xx_hal_rtc_ex.c ****   /* Enable the write protection for RTC registers */
1098:Drivers/STM32F4xx_HAL_Driver/Src/stm32f4xx_hal_rtc_ex.c ****   __HAL_RTC_WRITEPROTECTION_ENABLE(hrtc);
 1801              		.loc 1 1098 3 is_stmt 1 view .LVU635
 1802              		.loc 1 1098 3 view .LVU636
 1803 005e FF22     		movs	r2, #255
 1804 0060 5A62     		str	r2, [r3, #36]
 1805              		.loc 1 1098 3 view .LVU637
1099:Drivers/STM32F4xx_HAL_Driver/Src/stm32f4xx_hal_rtc_ex.c **** 
1100:Drivers/STM32F4xx_HAL_Driver/Src/stm32f4xx_hal_rtc_ex.c ****   hrtc->State = HAL_RTC_STATE_READY;
 1806              		.loc 1 1100 3 view .LVU638
 1807              		.loc 1 1100 15 is_stmt 0 view .LVU639
 1808 0062 0123     		movs	r3, #1
 1809 0064 6377     		strb	r3, [r4, #29]
1101:Drivers/STM32F4xx_HAL_Driver/Src/stm32f4xx_hal_rtc_ex.c **** 
1102:Drivers/STM32F4xx_HAL_Driver/Src/stm32f4xx_hal_rtc_ex.c ****   /* Process Unlocked */
1103:Drivers/STM32F4xx_HAL_Driver/Src/stm32f4xx_hal_rtc_ex.c ****   __HAL_UNLOCK(hrtc);
 1810              		.loc 1 1103 3 is_stmt 1 view .LVU640
 1811              		.loc 1 1103 3 view .LVU641
 1812 0066 0020     		movs	r0, #0
 1813 0068 2077     		strb	r0, [r4, #28]
 1814              		.loc 1 1103 3 view .LVU642
1104:Drivers/STM32F4xx_HAL_Driver/Src/stm32f4xx_hal_rtc_ex.c **** 
1105:Drivers/STM32F4xx_HAL_Driver/Src/stm32f4xx_hal_rtc_ex.c ****   return HAL_OK;
 1815              		.loc 1 1105 3 view .LVU643
 1816              	.LVL125:
 1817              	.L104:
1106:Drivers/STM32F4xx_HAL_Driver/Src/stm32f4xx_hal_rtc_ex.c **** }
 1818              		.loc 1 1106 1 is_stmt 0 view .LVU644
 1819 006a 38BD     		pop	{r3, r4, r5, pc}
 1820              	.LVL126:
 1821              	.L107:
1064:Drivers/STM32F4xx_HAL_Driver/Src/stm32f4xx_hal_rtc_ex.c **** 
 1822              		.loc 1 1064 3 view .LVU645
 1823 006c 0220     		movs	r0, #2
 1824              	.LVL127:
1064:Drivers/STM32F4xx_HAL_Driver/Src/stm32f4xx_hal_rtc_ex.c **** 
 1825              		.loc 1 1064 3 view .LVU646
 1826 006e FCE7     		b	.L104
 1827              		.cfi_endproc
 1828              	.LFE144:
 1830              		.section	.text.HAL_RTCEx_GetWakeUpTimer,"ax",%progbits
 1831              		.align	1
 1832              		.global	HAL_RTCEx_GetWakeUpTimer
 1833              		.syntax unified
ARM GAS  /tmp/cckJJ7Hn.s 			page 54


 1834              		.thumb
 1835              		.thumb_func
 1837              	HAL_RTCEx_GetWakeUpTimer:
 1838              	.LVL128:
 1839              	.LFB145:
1107:Drivers/STM32F4xx_HAL_Driver/Src/stm32f4xx_hal_rtc_ex.c **** 
1108:Drivers/STM32F4xx_HAL_Driver/Src/stm32f4xx_hal_rtc_ex.c **** /**
1109:Drivers/STM32F4xx_HAL_Driver/Src/stm32f4xx_hal_rtc_ex.c ****   * @brief  Gets wakeup timer counter.
1110:Drivers/STM32F4xx_HAL_Driver/Src/stm32f4xx_hal_rtc_ex.c ****   * @param  hrtc pointer to a RTC_HandleTypeDef structure that contains
1111:Drivers/STM32F4xx_HAL_Driver/Src/stm32f4xx_hal_rtc_ex.c ****   *                the configuration information for RTC.
1112:Drivers/STM32F4xx_HAL_Driver/Src/stm32f4xx_hal_rtc_ex.c ****   * @retval Counter value
1113:Drivers/STM32F4xx_HAL_Driver/Src/stm32f4xx_hal_rtc_ex.c ****   */
1114:Drivers/STM32F4xx_HAL_Driver/Src/stm32f4xx_hal_rtc_ex.c **** uint32_t HAL_RTCEx_GetWakeUpTimer(RTC_HandleTypeDef *hrtc)
1115:Drivers/STM32F4xx_HAL_Driver/Src/stm32f4xx_hal_rtc_ex.c **** {
 1840              		.loc 1 1115 1 is_stmt 1 view -0
 1841              		.cfi_startproc
 1842              		@ args = 0, pretend = 0, frame = 0
 1843              		@ frame_needed = 0, uses_anonymous_args = 0
 1844              		@ link register save eliminated.
1116:Drivers/STM32F4xx_HAL_Driver/Src/stm32f4xx_hal_rtc_ex.c ****   /* Get the counter value */
1117:Drivers/STM32F4xx_HAL_Driver/Src/stm32f4xx_hal_rtc_ex.c ****   return ((uint32_t)(hrtc->Instance->WUTR & RTC_WUTR_WUT));
 1845              		.loc 1 1117 3 view .LVU648
 1846              		.loc 1 1117 26 is_stmt 0 view .LVU649
 1847 0000 0368     		ldr	r3, [r0]
 1848              		.loc 1 1117 36 view .LVU650
 1849 0002 5869     		ldr	r0, [r3, #20]
 1850              	.LVL129:
1118:Drivers/STM32F4xx_HAL_Driver/Src/stm32f4xx_hal_rtc_ex.c **** }
 1851              		.loc 1 1118 1 view .LVU651
 1852 0004 80B2     		uxth	r0, r0
 1853 0006 7047     		bx	lr
 1854              		.cfi_endproc
 1855              	.LFE145:
 1857              		.section	.text.HAL_RTCEx_WakeUpTimerEventCallback,"ax",%progbits
 1858              		.align	1
 1859              		.weak	HAL_RTCEx_WakeUpTimerEventCallback
 1860              		.syntax unified
 1861              		.thumb
 1862              		.thumb_func
 1864              	HAL_RTCEx_WakeUpTimerEventCallback:
 1865              	.LVL130:
 1866              	.LFB147:
1119:Drivers/STM32F4xx_HAL_Driver/Src/stm32f4xx_hal_rtc_ex.c **** 
1120:Drivers/STM32F4xx_HAL_Driver/Src/stm32f4xx_hal_rtc_ex.c **** /**
1121:Drivers/STM32F4xx_HAL_Driver/Src/stm32f4xx_hal_rtc_ex.c ****   * @brief  Handles Wakeup Timer interrupt request.
1122:Drivers/STM32F4xx_HAL_Driver/Src/stm32f4xx_hal_rtc_ex.c ****   * @note   Unlike alarm interrupt line (shared by Alarms A and B) or tamper
1123:Drivers/STM32F4xx_HAL_Driver/Src/stm32f4xx_hal_rtc_ex.c ****   *         interrupt line (shared by timestamp and tampers) wakeup timer
1124:Drivers/STM32F4xx_HAL_Driver/Src/stm32f4xx_hal_rtc_ex.c ****   *         interrupt line is exclusive to the wakeup timer.
1125:Drivers/STM32F4xx_HAL_Driver/Src/stm32f4xx_hal_rtc_ex.c ****   *         There is no need in this case to check on the interrupt enable
1126:Drivers/STM32F4xx_HAL_Driver/Src/stm32f4xx_hal_rtc_ex.c ****   *         status via __HAL_RTC_WAKEUPTIMER_GET_IT_SOURCE().
1127:Drivers/STM32F4xx_HAL_Driver/Src/stm32f4xx_hal_rtc_ex.c ****   * @param  hrtc pointer to a RTC_HandleTypeDef structure that contains
1128:Drivers/STM32F4xx_HAL_Driver/Src/stm32f4xx_hal_rtc_ex.c ****   *                the configuration information for RTC.
1129:Drivers/STM32F4xx_HAL_Driver/Src/stm32f4xx_hal_rtc_ex.c ****   * @retval None
1130:Drivers/STM32F4xx_HAL_Driver/Src/stm32f4xx_hal_rtc_ex.c ****   */
1131:Drivers/STM32F4xx_HAL_Driver/Src/stm32f4xx_hal_rtc_ex.c **** void HAL_RTCEx_WakeUpTimerIRQHandler(RTC_HandleTypeDef *hrtc)
1132:Drivers/STM32F4xx_HAL_Driver/Src/stm32f4xx_hal_rtc_ex.c **** {
1133:Drivers/STM32F4xx_HAL_Driver/Src/stm32f4xx_hal_rtc_ex.c ****   /* Get the pending status of the Wakeup timer Interrupt */
ARM GAS  /tmp/cckJJ7Hn.s 			page 55


1134:Drivers/STM32F4xx_HAL_Driver/Src/stm32f4xx_hal_rtc_ex.c ****   if (__HAL_RTC_WAKEUPTIMER_GET_FLAG(hrtc, RTC_FLAG_WUTF) != 0U)
1135:Drivers/STM32F4xx_HAL_Driver/Src/stm32f4xx_hal_rtc_ex.c ****   {
1136:Drivers/STM32F4xx_HAL_Driver/Src/stm32f4xx_hal_rtc_ex.c ****     /* Wakeup timer callback */
1137:Drivers/STM32F4xx_HAL_Driver/Src/stm32f4xx_hal_rtc_ex.c **** #if (USE_HAL_RTC_REGISTER_CALLBACKS == 1)
1138:Drivers/STM32F4xx_HAL_Driver/Src/stm32f4xx_hal_rtc_ex.c ****     hrtc->WakeUpTimerEventCallback(hrtc);
1139:Drivers/STM32F4xx_HAL_Driver/Src/stm32f4xx_hal_rtc_ex.c **** #else
1140:Drivers/STM32F4xx_HAL_Driver/Src/stm32f4xx_hal_rtc_ex.c ****     HAL_RTCEx_WakeUpTimerEventCallback(hrtc);
1141:Drivers/STM32F4xx_HAL_Driver/Src/stm32f4xx_hal_rtc_ex.c **** #endif /* USE_HAL_RTC_REGISTER_CALLBACKS */
1142:Drivers/STM32F4xx_HAL_Driver/Src/stm32f4xx_hal_rtc_ex.c **** 
1143:Drivers/STM32F4xx_HAL_Driver/Src/stm32f4xx_hal_rtc_ex.c ****     /* Clear the Wakeup timer interrupt pending bit */
1144:Drivers/STM32F4xx_HAL_Driver/Src/stm32f4xx_hal_rtc_ex.c ****     __HAL_RTC_WAKEUPTIMER_CLEAR_FLAG(hrtc, RTC_FLAG_WUTF);
1145:Drivers/STM32F4xx_HAL_Driver/Src/stm32f4xx_hal_rtc_ex.c ****   }
1146:Drivers/STM32F4xx_HAL_Driver/Src/stm32f4xx_hal_rtc_ex.c **** 
1147:Drivers/STM32F4xx_HAL_Driver/Src/stm32f4xx_hal_rtc_ex.c ****   /* Clear the EXTI's line Flag for RTC WakeUpTimer */
1148:Drivers/STM32F4xx_HAL_Driver/Src/stm32f4xx_hal_rtc_ex.c ****   __HAL_RTC_WAKEUPTIMER_EXTI_CLEAR_FLAG();
1149:Drivers/STM32F4xx_HAL_Driver/Src/stm32f4xx_hal_rtc_ex.c **** 
1150:Drivers/STM32F4xx_HAL_Driver/Src/stm32f4xx_hal_rtc_ex.c ****   /* Change RTC state */
1151:Drivers/STM32F4xx_HAL_Driver/Src/stm32f4xx_hal_rtc_ex.c ****   hrtc->State = HAL_RTC_STATE_READY;
1152:Drivers/STM32F4xx_HAL_Driver/Src/stm32f4xx_hal_rtc_ex.c **** }
1153:Drivers/STM32F4xx_HAL_Driver/Src/stm32f4xx_hal_rtc_ex.c **** 
1154:Drivers/STM32F4xx_HAL_Driver/Src/stm32f4xx_hal_rtc_ex.c **** /**
1155:Drivers/STM32F4xx_HAL_Driver/Src/stm32f4xx_hal_rtc_ex.c ****   * @brief  Wakeup Timer callback.
1156:Drivers/STM32F4xx_HAL_Driver/Src/stm32f4xx_hal_rtc_ex.c ****   * @param  hrtc pointer to a RTC_HandleTypeDef structure that contains
1157:Drivers/STM32F4xx_HAL_Driver/Src/stm32f4xx_hal_rtc_ex.c ****   *                the configuration information for RTC.
1158:Drivers/STM32F4xx_HAL_Driver/Src/stm32f4xx_hal_rtc_ex.c ****   * @retval None
1159:Drivers/STM32F4xx_HAL_Driver/Src/stm32f4xx_hal_rtc_ex.c ****   */
1160:Drivers/STM32F4xx_HAL_Driver/Src/stm32f4xx_hal_rtc_ex.c **** __weak void HAL_RTCEx_WakeUpTimerEventCallback(RTC_HandleTypeDef *hrtc)
1161:Drivers/STM32F4xx_HAL_Driver/Src/stm32f4xx_hal_rtc_ex.c **** {
 1867              		.loc 1 1161 1 is_stmt 1 view -0
 1868              		.cfi_startproc
 1869              		@ args = 0, pretend = 0, frame = 0
 1870              		@ frame_needed = 0, uses_anonymous_args = 0
 1871              		@ link register save eliminated.
1162:Drivers/STM32F4xx_HAL_Driver/Src/stm32f4xx_hal_rtc_ex.c ****   /* Prevent unused argument(s) compilation warning */
1163:Drivers/STM32F4xx_HAL_Driver/Src/stm32f4xx_hal_rtc_ex.c ****   UNUSED(hrtc);
 1872              		.loc 1 1163 3 view .LVU653
1164:Drivers/STM32F4xx_HAL_Driver/Src/stm32f4xx_hal_rtc_ex.c **** 
1165:Drivers/STM32F4xx_HAL_Driver/Src/stm32f4xx_hal_rtc_ex.c ****   /* NOTE: This function should not be modified, when the callback is needed,
1166:Drivers/STM32F4xx_HAL_Driver/Src/stm32f4xx_hal_rtc_ex.c ****            the HAL_RTCEx_WakeUpTimerEventCallback could be implemented in the user file
1167:Drivers/STM32F4xx_HAL_Driver/Src/stm32f4xx_hal_rtc_ex.c ****    */
1168:Drivers/STM32F4xx_HAL_Driver/Src/stm32f4xx_hal_rtc_ex.c **** }
 1873              		.loc 1 1168 1 is_stmt 0 view .LVU654
 1874 0000 7047     		bx	lr
 1875              		.cfi_endproc
 1876              	.LFE147:
 1878              		.section	.text.HAL_RTCEx_WakeUpTimerIRQHandler,"ax",%progbits
 1879              		.align	1
 1880              		.global	HAL_RTCEx_WakeUpTimerIRQHandler
 1881              		.syntax unified
 1882              		.thumb
 1883              		.thumb_func
 1885              	HAL_RTCEx_WakeUpTimerIRQHandler:
 1886              	.LVL131:
 1887              	.LFB146:
1132:Drivers/STM32F4xx_HAL_Driver/Src/stm32f4xx_hal_rtc_ex.c ****   /* Get the pending status of the Wakeup timer Interrupt */
 1888              		.loc 1 1132 1 is_stmt 1 view -0
 1889              		.cfi_startproc
ARM GAS  /tmp/cckJJ7Hn.s 			page 56


 1890              		@ args = 0, pretend = 0, frame = 0
 1891              		@ frame_needed = 0, uses_anonymous_args = 0
1132:Drivers/STM32F4xx_HAL_Driver/Src/stm32f4xx_hal_rtc_ex.c ****   /* Get the pending status of the Wakeup timer Interrupt */
 1892              		.loc 1 1132 1 is_stmt 0 view .LVU656
 1893 0000 10B5     		push	{r4, lr}
 1894              		.cfi_def_cfa_offset 8
 1895              		.cfi_offset 4, -8
 1896              		.cfi_offset 14, -4
 1897 0002 0446     		mov	r4, r0
1134:Drivers/STM32F4xx_HAL_Driver/Src/stm32f4xx_hal_rtc_ex.c ****   {
 1898              		.loc 1 1134 3 is_stmt 1 view .LVU657
1134:Drivers/STM32F4xx_HAL_Driver/Src/stm32f4xx_hal_rtc_ex.c ****   {
 1899              		.loc 1 1134 7 is_stmt 0 view .LVU658
 1900 0004 0368     		ldr	r3, [r0]
 1901 0006 DB68     		ldr	r3, [r3, #12]
1134:Drivers/STM32F4xx_HAL_Driver/Src/stm32f4xx_hal_rtc_ex.c ****   {
 1902              		.loc 1 1134 6 view .LVU659
 1903 0008 13F4806F 		tst	r3, #1024
 1904 000c 06D1     		bne	.L115
 1905              	.LVL132:
 1906              	.L113:
1148:Drivers/STM32F4xx_HAL_Driver/Src/stm32f4xx_hal_rtc_ex.c **** 
 1907              		.loc 1 1148 3 is_stmt 1 view .LVU660
 1908 000e 084B     		ldr	r3, .L116
 1909 0010 4FF48002 		mov	r2, #4194304
 1910 0014 5A61     		str	r2, [r3, #20]
1151:Drivers/STM32F4xx_HAL_Driver/Src/stm32f4xx_hal_rtc_ex.c **** }
 1911              		.loc 1 1151 3 view .LVU661
1151:Drivers/STM32F4xx_HAL_Driver/Src/stm32f4xx_hal_rtc_ex.c **** }
 1912              		.loc 1 1151 15 is_stmt 0 view .LVU662
 1913 0016 0123     		movs	r3, #1
 1914 0018 6377     		strb	r3, [r4, #29]
1152:Drivers/STM32F4xx_HAL_Driver/Src/stm32f4xx_hal_rtc_ex.c **** 
 1915              		.loc 1 1152 1 view .LVU663
 1916 001a 10BD     		pop	{r4, pc}
 1917              	.LVL133:
 1918              	.L115:
1140:Drivers/STM32F4xx_HAL_Driver/Src/stm32f4xx_hal_rtc_ex.c **** #endif /* USE_HAL_RTC_REGISTER_CALLBACKS */
 1919              		.loc 1 1140 5 is_stmt 1 view .LVU664
 1920 001c FFF7FEFF 		bl	HAL_RTCEx_WakeUpTimerEventCallback
 1921              	.LVL134:
1144:Drivers/STM32F4xx_HAL_Driver/Src/stm32f4xx_hal_rtc_ex.c ****   }
 1922              		.loc 1 1144 5 view .LVU665
 1923 0020 2268     		ldr	r2, [r4]
 1924 0022 D368     		ldr	r3, [r2, #12]
 1925 0024 DBB2     		uxtb	r3, r3
 1926 0026 63F49063 		orn	r3, r3, #1152
 1927 002a D360     		str	r3, [r2, #12]
 1928 002c EFE7     		b	.L113
 1929              	.L117:
 1930 002e 00BF     		.align	2
 1931              	.L116:
 1932 0030 003C0140 		.word	1073822720
 1933              		.cfi_endproc
 1934              	.LFE146:
 1936              		.section	.text.HAL_RTCEx_PollForWakeUpTimerEvent,"ax",%progbits
 1937              		.align	1
ARM GAS  /tmp/cckJJ7Hn.s 			page 57


 1938              		.global	HAL_RTCEx_PollForWakeUpTimerEvent
 1939              		.syntax unified
 1940              		.thumb
 1941              		.thumb_func
 1943              	HAL_RTCEx_PollForWakeUpTimerEvent:
 1944              	.LVL135:
 1945              	.LFB148:
1169:Drivers/STM32F4xx_HAL_Driver/Src/stm32f4xx_hal_rtc_ex.c **** 
1170:Drivers/STM32F4xx_HAL_Driver/Src/stm32f4xx_hal_rtc_ex.c **** /**
1171:Drivers/STM32F4xx_HAL_Driver/Src/stm32f4xx_hal_rtc_ex.c ****   * @brief  Handles Wakeup Timer Polling.
1172:Drivers/STM32F4xx_HAL_Driver/Src/stm32f4xx_hal_rtc_ex.c ****   * @param  hrtc pointer to a RTC_HandleTypeDef structure that contains
1173:Drivers/STM32F4xx_HAL_Driver/Src/stm32f4xx_hal_rtc_ex.c ****   *                the configuration information for RTC.
1174:Drivers/STM32F4xx_HAL_Driver/Src/stm32f4xx_hal_rtc_ex.c ****   * @param  Timeout Timeout duration
1175:Drivers/STM32F4xx_HAL_Driver/Src/stm32f4xx_hal_rtc_ex.c ****   * @retval HAL status
1176:Drivers/STM32F4xx_HAL_Driver/Src/stm32f4xx_hal_rtc_ex.c ****   */
1177:Drivers/STM32F4xx_HAL_Driver/Src/stm32f4xx_hal_rtc_ex.c **** HAL_StatusTypeDef HAL_RTCEx_PollForWakeUpTimerEvent(RTC_HandleTypeDef *hrtc, uint32_t Timeout)
1178:Drivers/STM32F4xx_HAL_Driver/Src/stm32f4xx_hal_rtc_ex.c **** {
 1946              		.loc 1 1178 1 view -0
 1947              		.cfi_startproc
 1948              		@ args = 0, pretend = 0, frame = 0
 1949              		@ frame_needed = 0, uses_anonymous_args = 0
 1950              		.loc 1 1178 1 is_stmt 0 view .LVU667
 1951 0000 70B5     		push	{r4, r5, r6, lr}
 1952              		.cfi_def_cfa_offset 16
 1953              		.cfi_offset 4, -16
 1954              		.cfi_offset 5, -12
 1955              		.cfi_offset 6, -8
 1956              		.cfi_offset 14, -4
 1957 0002 0446     		mov	r4, r0
 1958 0004 0D46     		mov	r5, r1
1179:Drivers/STM32F4xx_HAL_Driver/Src/stm32f4xx_hal_rtc_ex.c ****   uint32_t tickstart = 0U;
 1959              		.loc 1 1179 3 is_stmt 1 view .LVU668
 1960              	.LVL136:
1180:Drivers/STM32F4xx_HAL_Driver/Src/stm32f4xx_hal_rtc_ex.c **** 
1181:Drivers/STM32F4xx_HAL_Driver/Src/stm32f4xx_hal_rtc_ex.c ****   /* Get tick */
1182:Drivers/STM32F4xx_HAL_Driver/Src/stm32f4xx_hal_rtc_ex.c ****   tickstart = HAL_GetTick();
 1961              		.loc 1 1182 3 view .LVU669
 1962              		.loc 1 1182 15 is_stmt 0 view .LVU670
 1963 0006 FFF7FEFF 		bl	HAL_GetTick
 1964              	.LVL137:
 1965              		.loc 1 1182 15 view .LVU671
 1966 000a 0646     		mov	r6, r0
 1967              	.LVL138:
1183:Drivers/STM32F4xx_HAL_Driver/Src/stm32f4xx_hal_rtc_ex.c **** 
1184:Drivers/STM32F4xx_HAL_Driver/Src/stm32f4xx_hal_rtc_ex.c ****   while (__HAL_RTC_WAKEUPTIMER_GET_FLAG(hrtc, RTC_FLAG_WUTF) == 0U)
 1968              		.loc 1 1184 3 is_stmt 1 view .LVU672
 1969              	.L120:
 1970              		.loc 1 1184 9 view .LVU673
 1971              		.loc 1 1184 10 is_stmt 0 view .LVU674
 1972 000c 2368     		ldr	r3, [r4]
 1973 000e DA68     		ldr	r2, [r3, #12]
 1974              		.loc 1 1184 9 view .LVU675
 1975 0010 12F4806F 		tst	r2, #1024
 1976 0014 0BD1     		bne	.L125
1185:Drivers/STM32F4xx_HAL_Driver/Src/stm32f4xx_hal_rtc_ex.c ****   {
1186:Drivers/STM32F4xx_HAL_Driver/Src/stm32f4xx_hal_rtc_ex.c ****     if (Timeout != HAL_MAX_DELAY)
 1977              		.loc 1 1186 5 is_stmt 1 view .LVU676
ARM GAS  /tmp/cckJJ7Hn.s 			page 58


 1978              		.loc 1 1186 8 is_stmt 0 view .LVU677
 1979 0016 B5F1FF3F 		cmp	r5, #-1
 1980 001a F7D0     		beq	.L120
1187:Drivers/STM32F4xx_HAL_Driver/Src/stm32f4xx_hal_rtc_ex.c ****     {
1188:Drivers/STM32F4xx_HAL_Driver/Src/stm32f4xx_hal_rtc_ex.c ****       if ((Timeout == 0U) || ((HAL_GetTick() - tickstart) > Timeout))
 1981              		.loc 1 1188 7 is_stmt 1 view .LVU678
 1982              		.loc 1 1188 10 is_stmt 0 view .LVU679
 1983 001c 25B1     		cbz	r5, .L121
 1984              		.loc 1 1188 32 discriminator 1 view .LVU680
 1985 001e FFF7FEFF 		bl	HAL_GetTick
 1986              	.LVL139:
 1987              		.loc 1 1188 46 discriminator 1 view .LVU681
 1988 0022 801B     		subs	r0, r0, r6
 1989              		.loc 1 1188 27 discriminator 1 view .LVU682
 1990 0024 A842     		cmp	r0, r5
 1991 0026 F1D9     		bls	.L120
 1992              	.L121:
1189:Drivers/STM32F4xx_HAL_Driver/Src/stm32f4xx_hal_rtc_ex.c ****       {
1190:Drivers/STM32F4xx_HAL_Driver/Src/stm32f4xx_hal_rtc_ex.c ****         hrtc->State = HAL_RTC_STATE_TIMEOUT;
 1993              		.loc 1 1190 9 is_stmt 1 view .LVU683
 1994              		.loc 1 1190 21 is_stmt 0 view .LVU684
 1995 0028 0320     		movs	r0, #3
 1996 002a 6077     		strb	r0, [r4, #29]
1191:Drivers/STM32F4xx_HAL_Driver/Src/stm32f4xx_hal_rtc_ex.c ****         return HAL_TIMEOUT;
 1997              		.loc 1 1191 9 is_stmt 1 view .LVU685
 1998              		.loc 1 1191 16 is_stmt 0 view .LVU686
 1999 002c 07E0     		b	.L122
 2000              	.L125:
1192:Drivers/STM32F4xx_HAL_Driver/Src/stm32f4xx_hal_rtc_ex.c ****       }
1193:Drivers/STM32F4xx_HAL_Driver/Src/stm32f4xx_hal_rtc_ex.c ****     }
1194:Drivers/STM32F4xx_HAL_Driver/Src/stm32f4xx_hal_rtc_ex.c ****   }
1195:Drivers/STM32F4xx_HAL_Driver/Src/stm32f4xx_hal_rtc_ex.c **** 
1196:Drivers/STM32F4xx_HAL_Driver/Src/stm32f4xx_hal_rtc_ex.c ****   /* Clear the Wakeup timer Flag */
1197:Drivers/STM32F4xx_HAL_Driver/Src/stm32f4xx_hal_rtc_ex.c ****   __HAL_RTC_WAKEUPTIMER_CLEAR_FLAG(hrtc, RTC_FLAG_WUTF);
 2001              		.loc 1 1197 3 is_stmt 1 view .LVU687
 2002 002e DA68     		ldr	r2, [r3, #12]
 2003 0030 D2B2     		uxtb	r2, r2
 2004 0032 62F49062 		orn	r2, r2, #1152
 2005 0036 DA60     		str	r2, [r3, #12]
1198:Drivers/STM32F4xx_HAL_Driver/Src/stm32f4xx_hal_rtc_ex.c **** 
1199:Drivers/STM32F4xx_HAL_Driver/Src/stm32f4xx_hal_rtc_ex.c ****   /* Change RTC state */
1200:Drivers/STM32F4xx_HAL_Driver/Src/stm32f4xx_hal_rtc_ex.c ****   hrtc->State = HAL_RTC_STATE_READY;
 2006              		.loc 1 1200 3 view .LVU688
 2007              		.loc 1 1200 15 is_stmt 0 view .LVU689
 2008 0038 0123     		movs	r3, #1
 2009 003a 6377     		strb	r3, [r4, #29]
1201:Drivers/STM32F4xx_HAL_Driver/Src/stm32f4xx_hal_rtc_ex.c **** 
1202:Drivers/STM32F4xx_HAL_Driver/Src/stm32f4xx_hal_rtc_ex.c ****   return HAL_OK;
 2010              		.loc 1 1202 3 is_stmt 1 view .LVU690
 2011              		.loc 1 1202 10 is_stmt 0 view .LVU691
 2012 003c 0020     		movs	r0, #0
 2013              	.L122:
1203:Drivers/STM32F4xx_HAL_Driver/Src/stm32f4xx_hal_rtc_ex.c **** }
 2014              		.loc 1 1203 1 view .LVU692
 2015 003e 70BD     		pop	{r4, r5, r6, pc}
 2016              		.loc 1 1203 1 view .LVU693
 2017              		.cfi_endproc
ARM GAS  /tmp/cckJJ7Hn.s 			page 59


 2018              	.LFE148:
 2020              		.section	.text.HAL_RTCEx_BKUPWrite,"ax",%progbits
 2021              		.align	1
 2022              		.global	HAL_RTCEx_BKUPWrite
 2023              		.syntax unified
 2024              		.thumb
 2025              		.thumb_func
 2027              	HAL_RTCEx_BKUPWrite:
 2028              	.LVL140:
 2029              	.LFB149:
1204:Drivers/STM32F4xx_HAL_Driver/Src/stm32f4xx_hal_rtc_ex.c **** 
1205:Drivers/STM32F4xx_HAL_Driver/Src/stm32f4xx_hal_rtc_ex.c **** /**
1206:Drivers/STM32F4xx_HAL_Driver/Src/stm32f4xx_hal_rtc_ex.c ****   * @}
1207:Drivers/STM32F4xx_HAL_Driver/Src/stm32f4xx_hal_rtc_ex.c ****   */
1208:Drivers/STM32F4xx_HAL_Driver/Src/stm32f4xx_hal_rtc_ex.c **** 
1209:Drivers/STM32F4xx_HAL_Driver/Src/stm32f4xx_hal_rtc_ex.c **** /** @defgroup RTCEx_Exported_Functions_Group3 Extended Peripheral Control functions
1210:Drivers/STM32F4xx_HAL_Driver/Src/stm32f4xx_hal_rtc_ex.c ****   * @brief    Extended Peripheral Control functions
1211:Drivers/STM32F4xx_HAL_Driver/Src/stm32f4xx_hal_rtc_ex.c ****   *
1212:Drivers/STM32F4xx_HAL_Driver/Src/stm32f4xx_hal_rtc_ex.c **** @verbatim
1213:Drivers/STM32F4xx_HAL_Driver/Src/stm32f4xx_hal_rtc_ex.c ****  ===============================================================================
1214:Drivers/STM32F4xx_HAL_Driver/Src/stm32f4xx_hal_rtc_ex.c ****               ##### Extended Peripheral Control functions #####
1215:Drivers/STM32F4xx_HAL_Driver/Src/stm32f4xx_hal_rtc_ex.c ****  ===============================================================================
1216:Drivers/STM32F4xx_HAL_Driver/Src/stm32f4xx_hal_rtc_ex.c ****     [..]
1217:Drivers/STM32F4xx_HAL_Driver/Src/stm32f4xx_hal_rtc_ex.c ****     This subsection provides functions allowing to
1218:Drivers/STM32F4xx_HAL_Driver/Src/stm32f4xx_hal_rtc_ex.c ****       (+) Write a data in a specified RTC Backup data register
1219:Drivers/STM32F4xx_HAL_Driver/Src/stm32f4xx_hal_rtc_ex.c ****       (+) Read a data in a specified RTC Backup data register
1220:Drivers/STM32F4xx_HAL_Driver/Src/stm32f4xx_hal_rtc_ex.c ****       (+) Set the Coarse calibration parameters.
1221:Drivers/STM32F4xx_HAL_Driver/Src/stm32f4xx_hal_rtc_ex.c ****       (+) Deactivate the Coarse calibration parameters
1222:Drivers/STM32F4xx_HAL_Driver/Src/stm32f4xx_hal_rtc_ex.c ****       (+) Set the Smooth calibration parameters.
1223:Drivers/STM32F4xx_HAL_Driver/Src/stm32f4xx_hal_rtc_ex.c ****       (+) Configure the Synchronization Shift Control Settings.
1224:Drivers/STM32F4xx_HAL_Driver/Src/stm32f4xx_hal_rtc_ex.c ****       (+) Configure the Calibration Pinout (RTC_CALIB) Selection (1Hz or 512Hz).
1225:Drivers/STM32F4xx_HAL_Driver/Src/stm32f4xx_hal_rtc_ex.c ****       (+) Deactivate the Calibration Pinout (RTC_CALIB) Selection (1Hz or 512Hz).
1226:Drivers/STM32F4xx_HAL_Driver/Src/stm32f4xx_hal_rtc_ex.c ****       (+) Enable the RTC reference clock detection.
1227:Drivers/STM32F4xx_HAL_Driver/Src/stm32f4xx_hal_rtc_ex.c ****       (+) Disable the RTC reference clock detection.
1228:Drivers/STM32F4xx_HAL_Driver/Src/stm32f4xx_hal_rtc_ex.c ****       (+) Enable the Bypass Shadow feature.
1229:Drivers/STM32F4xx_HAL_Driver/Src/stm32f4xx_hal_rtc_ex.c ****       (+) Disable the Bypass Shadow feature.
1230:Drivers/STM32F4xx_HAL_Driver/Src/stm32f4xx_hal_rtc_ex.c **** 
1231:Drivers/STM32F4xx_HAL_Driver/Src/stm32f4xx_hal_rtc_ex.c **** @endverbatim
1232:Drivers/STM32F4xx_HAL_Driver/Src/stm32f4xx_hal_rtc_ex.c ****   * @{
1233:Drivers/STM32F4xx_HAL_Driver/Src/stm32f4xx_hal_rtc_ex.c ****   */
1234:Drivers/STM32F4xx_HAL_Driver/Src/stm32f4xx_hal_rtc_ex.c **** 
1235:Drivers/STM32F4xx_HAL_Driver/Src/stm32f4xx_hal_rtc_ex.c **** /**
1236:Drivers/STM32F4xx_HAL_Driver/Src/stm32f4xx_hal_rtc_ex.c ****   * @brief  Writes a data in a specified RTC Backup data register.
1237:Drivers/STM32F4xx_HAL_Driver/Src/stm32f4xx_hal_rtc_ex.c ****   * @param  hrtc pointer to a RTC_HandleTypeDef structure that contains
1238:Drivers/STM32F4xx_HAL_Driver/Src/stm32f4xx_hal_rtc_ex.c ****   *                the configuration information for RTC.
1239:Drivers/STM32F4xx_HAL_Driver/Src/stm32f4xx_hal_rtc_ex.c ****   * @param  BackupRegister RTC Backup data Register number.
1240:Drivers/STM32F4xx_HAL_Driver/Src/stm32f4xx_hal_rtc_ex.c ****   *          This parameter can be: RTC_BKP_DRx (where x can be from 0 to 19)
1241:Drivers/STM32F4xx_HAL_Driver/Src/stm32f4xx_hal_rtc_ex.c ****   *                                 to specify the register.
1242:Drivers/STM32F4xx_HAL_Driver/Src/stm32f4xx_hal_rtc_ex.c ****   * @param  Data Data to be written in the specified RTC Backup data register.
1243:Drivers/STM32F4xx_HAL_Driver/Src/stm32f4xx_hal_rtc_ex.c ****   * @retval None
1244:Drivers/STM32F4xx_HAL_Driver/Src/stm32f4xx_hal_rtc_ex.c ****   */
1245:Drivers/STM32F4xx_HAL_Driver/Src/stm32f4xx_hal_rtc_ex.c **** void HAL_RTCEx_BKUPWrite(RTC_HandleTypeDef *hrtc, uint32_t BackupRegister, uint32_t Data)
1246:Drivers/STM32F4xx_HAL_Driver/Src/stm32f4xx_hal_rtc_ex.c **** {
 2030              		.loc 1 1246 1 is_stmt 1 view -0
 2031              		.cfi_startproc
 2032              		@ args = 0, pretend = 0, frame = 0
 2033              		@ frame_needed = 0, uses_anonymous_args = 0
ARM GAS  /tmp/cckJJ7Hn.s 			page 60


 2034              		@ link register save eliminated.
1247:Drivers/STM32F4xx_HAL_Driver/Src/stm32f4xx_hal_rtc_ex.c ****   uint32_t tmp = 0U;
 2035              		.loc 1 1247 3 view .LVU695
1248:Drivers/STM32F4xx_HAL_Driver/Src/stm32f4xx_hal_rtc_ex.c **** 
1249:Drivers/STM32F4xx_HAL_Driver/Src/stm32f4xx_hal_rtc_ex.c ****   /* Check the parameters */
1250:Drivers/STM32F4xx_HAL_Driver/Src/stm32f4xx_hal_rtc_ex.c ****   assert_param(IS_RTC_BKP(BackupRegister));
 2036              		.loc 1 1250 3 view .LVU696
1251:Drivers/STM32F4xx_HAL_Driver/Src/stm32f4xx_hal_rtc_ex.c **** 
1252:Drivers/STM32F4xx_HAL_Driver/Src/stm32f4xx_hal_rtc_ex.c ****   tmp = (uint32_t) & (hrtc->Instance->BKP0R);
 2037              		.loc 1 1252 3 view .LVU697
 2038              		.loc 1 1252 27 is_stmt 0 view .LVU698
 2039 0000 0368     		ldr	r3, [r0]
 2040              		.loc 1 1252 20 view .LVU699
 2041 0002 5033     		adds	r3, r3, #80
 2042              	.LVL141:
1253:Drivers/STM32F4xx_HAL_Driver/Src/stm32f4xx_hal_rtc_ex.c ****   tmp += (BackupRegister * 4U);
 2043              		.loc 1 1253 3 is_stmt 1 view .LVU700
1254:Drivers/STM32F4xx_HAL_Driver/Src/stm32f4xx_hal_rtc_ex.c **** 
1255:Drivers/STM32F4xx_HAL_Driver/Src/stm32f4xx_hal_rtc_ex.c ****   /* Write the specified register */
1256:Drivers/STM32F4xx_HAL_Driver/Src/stm32f4xx_hal_rtc_ex.c ****   *(__IO uint32_t *)tmp = (uint32_t)Data;
 2044              		.loc 1 1256 3 view .LVU701
 2045              		.loc 1 1256 25 is_stmt 0 view .LVU702
 2046 0004 43F82120 		str	r2, [r3, r1, lsl #2]
1257:Drivers/STM32F4xx_HAL_Driver/Src/stm32f4xx_hal_rtc_ex.c **** }
 2047              		.loc 1 1257 1 view .LVU703
 2048 0008 7047     		bx	lr
 2049              		.cfi_endproc
 2050              	.LFE149:
 2052              		.section	.text.HAL_RTCEx_BKUPRead,"ax",%progbits
 2053              		.align	1
 2054              		.global	HAL_RTCEx_BKUPRead
 2055              		.syntax unified
 2056              		.thumb
 2057              		.thumb_func
 2059              	HAL_RTCEx_BKUPRead:
 2060              	.LVL142:
 2061              	.LFB150:
1258:Drivers/STM32F4xx_HAL_Driver/Src/stm32f4xx_hal_rtc_ex.c **** 
1259:Drivers/STM32F4xx_HAL_Driver/Src/stm32f4xx_hal_rtc_ex.c **** /**
1260:Drivers/STM32F4xx_HAL_Driver/Src/stm32f4xx_hal_rtc_ex.c ****   * @brief  Reads data from the specified RTC Backup data Register.
1261:Drivers/STM32F4xx_HAL_Driver/Src/stm32f4xx_hal_rtc_ex.c ****   * @param  hrtc pointer to a RTC_HandleTypeDef structure that contains
1262:Drivers/STM32F4xx_HAL_Driver/Src/stm32f4xx_hal_rtc_ex.c ****   *                the configuration information for RTC.
1263:Drivers/STM32F4xx_HAL_Driver/Src/stm32f4xx_hal_rtc_ex.c ****   * @param  BackupRegister RTC Backup data Register number.
1264:Drivers/STM32F4xx_HAL_Driver/Src/stm32f4xx_hal_rtc_ex.c ****   *          This parameter can be: RTC_BKP_DRx (where x can be from 0 to 19)
1265:Drivers/STM32F4xx_HAL_Driver/Src/stm32f4xx_hal_rtc_ex.c ****   *                                 to specify the register.
1266:Drivers/STM32F4xx_HAL_Driver/Src/stm32f4xx_hal_rtc_ex.c ****   * @retval Read value
1267:Drivers/STM32F4xx_HAL_Driver/Src/stm32f4xx_hal_rtc_ex.c ****   */
1268:Drivers/STM32F4xx_HAL_Driver/Src/stm32f4xx_hal_rtc_ex.c **** uint32_t HAL_RTCEx_BKUPRead(RTC_HandleTypeDef *hrtc, uint32_t BackupRegister)
1269:Drivers/STM32F4xx_HAL_Driver/Src/stm32f4xx_hal_rtc_ex.c **** {
 2062              		.loc 1 1269 1 is_stmt 1 view -0
 2063              		.cfi_startproc
 2064              		@ args = 0, pretend = 0, frame = 0
 2065              		@ frame_needed = 0, uses_anonymous_args = 0
 2066              		@ link register save eliminated.
1270:Drivers/STM32F4xx_HAL_Driver/Src/stm32f4xx_hal_rtc_ex.c ****   uint32_t tmp = 0U;
 2067              		.loc 1 1270 3 view .LVU705
1271:Drivers/STM32F4xx_HAL_Driver/Src/stm32f4xx_hal_rtc_ex.c **** 
ARM GAS  /tmp/cckJJ7Hn.s 			page 61


1272:Drivers/STM32F4xx_HAL_Driver/Src/stm32f4xx_hal_rtc_ex.c ****   /* Check the parameters */
1273:Drivers/STM32F4xx_HAL_Driver/Src/stm32f4xx_hal_rtc_ex.c ****   assert_param(IS_RTC_BKP(BackupRegister));
 2068              		.loc 1 1273 3 view .LVU706
1274:Drivers/STM32F4xx_HAL_Driver/Src/stm32f4xx_hal_rtc_ex.c **** 
1275:Drivers/STM32F4xx_HAL_Driver/Src/stm32f4xx_hal_rtc_ex.c ****   tmp = (uint32_t) & (hrtc->Instance->BKP0R);
 2069              		.loc 1 1275 3 view .LVU707
 2070              		.loc 1 1275 27 is_stmt 0 view .LVU708
 2071 0000 0368     		ldr	r3, [r0]
 2072              		.loc 1 1275 20 view .LVU709
 2073 0002 5033     		adds	r3, r3, #80
 2074              	.LVL143:
1276:Drivers/STM32F4xx_HAL_Driver/Src/stm32f4xx_hal_rtc_ex.c ****   tmp += (BackupRegister * 4U);
 2075              		.loc 1 1276 3 is_stmt 1 view .LVU710
1277:Drivers/STM32F4xx_HAL_Driver/Src/stm32f4xx_hal_rtc_ex.c **** 
1278:Drivers/STM32F4xx_HAL_Driver/Src/stm32f4xx_hal_rtc_ex.c ****   /* Read the specified register */
1279:Drivers/STM32F4xx_HAL_Driver/Src/stm32f4xx_hal_rtc_ex.c ****   return (*(__IO uint32_t *)tmp);
 2076              		.loc 1 1279 3 view .LVU711
 2077              		.loc 1 1279 11 is_stmt 0 view .LVU712
 2078 0004 53F82100 		ldr	r0, [r3, r1, lsl #2]
 2079              	.LVL144:
1280:Drivers/STM32F4xx_HAL_Driver/Src/stm32f4xx_hal_rtc_ex.c **** }
 2080              		.loc 1 1280 1 view .LVU713
 2081 0008 7047     		bx	lr
 2082              		.cfi_endproc
 2083              	.LFE150:
 2085              		.section	.text.HAL_RTCEx_SetCoarseCalib,"ax",%progbits
 2086              		.align	1
 2087              		.global	HAL_RTCEx_SetCoarseCalib
 2088              		.syntax unified
 2089              		.thumb
 2090              		.thumb_func
 2092              	HAL_RTCEx_SetCoarseCalib:
 2093              	.LVL145:
 2094              	.LFB151:
1281:Drivers/STM32F4xx_HAL_Driver/Src/stm32f4xx_hal_rtc_ex.c **** 
1282:Drivers/STM32F4xx_HAL_Driver/Src/stm32f4xx_hal_rtc_ex.c **** /**
1283:Drivers/STM32F4xx_HAL_Driver/Src/stm32f4xx_hal_rtc_ex.c ****   * @brief  Sets the Coarse calibration parameters.
1284:Drivers/STM32F4xx_HAL_Driver/Src/stm32f4xx_hal_rtc_ex.c ****   * @param  hrtc pointer to a RTC_HandleTypeDef structure that contains
1285:Drivers/STM32F4xx_HAL_Driver/Src/stm32f4xx_hal_rtc_ex.c ****   *                the configuration information for RTC.
1286:Drivers/STM32F4xx_HAL_Driver/Src/stm32f4xx_hal_rtc_ex.c ****   * @param  CalibSign Specifies the sign of the coarse calibration value.
1287:Drivers/STM32F4xx_HAL_Driver/Src/stm32f4xx_hal_rtc_ex.c ****   *          This parameter can be  one of the following values:
1288:Drivers/STM32F4xx_HAL_Driver/Src/stm32f4xx_hal_rtc_ex.c ****   *             @arg RTC_CALIBSIGN_POSITIVE: The value sign is positive
1289:Drivers/STM32F4xx_HAL_Driver/Src/stm32f4xx_hal_rtc_ex.c ****   *             @arg RTC_CALIBSIGN_NEGATIVE: The value sign is negative
1290:Drivers/STM32F4xx_HAL_Driver/Src/stm32f4xx_hal_rtc_ex.c ****   * @param  Value value of coarse calibration expressed in ppm (coded on 5 bits).
1291:Drivers/STM32F4xx_HAL_Driver/Src/stm32f4xx_hal_rtc_ex.c ****   *
1292:Drivers/STM32F4xx_HAL_Driver/Src/stm32f4xx_hal_rtc_ex.c ****   * @note   This Calibration value should be between 0 and 63 when using negative
1293:Drivers/STM32F4xx_HAL_Driver/Src/stm32f4xx_hal_rtc_ex.c ****   *         sign with a 2-ppm step.
1294:Drivers/STM32F4xx_HAL_Driver/Src/stm32f4xx_hal_rtc_ex.c ****   *
1295:Drivers/STM32F4xx_HAL_Driver/Src/stm32f4xx_hal_rtc_ex.c ****   * @note   This Calibration value should be between 0 and 126 when using positive
1296:Drivers/STM32F4xx_HAL_Driver/Src/stm32f4xx_hal_rtc_ex.c ****   *         sign with a 4-ppm step.
1297:Drivers/STM32F4xx_HAL_Driver/Src/stm32f4xx_hal_rtc_ex.c ****   * @retval HAL status
1298:Drivers/STM32F4xx_HAL_Driver/Src/stm32f4xx_hal_rtc_ex.c ****   */
1299:Drivers/STM32F4xx_HAL_Driver/Src/stm32f4xx_hal_rtc_ex.c **** HAL_StatusTypeDef HAL_RTCEx_SetCoarseCalib(RTC_HandleTypeDef *hrtc, uint32_t CalibSign, uint32_t Va
1300:Drivers/STM32F4xx_HAL_Driver/Src/stm32f4xx_hal_rtc_ex.c **** {
 2095              		.loc 1 1300 1 is_stmt 1 view -0
 2096              		.cfi_startproc
 2097              		@ args = 0, pretend = 0, frame = 0
ARM GAS  /tmp/cckJJ7Hn.s 			page 62


 2098              		@ frame_needed = 0, uses_anonymous_args = 0
1301:Drivers/STM32F4xx_HAL_Driver/Src/stm32f4xx_hal_rtc_ex.c ****   HAL_StatusTypeDef status;
 2099              		.loc 1 1301 3 view .LVU715
1302:Drivers/STM32F4xx_HAL_Driver/Src/stm32f4xx_hal_rtc_ex.c **** 
1303:Drivers/STM32F4xx_HAL_Driver/Src/stm32f4xx_hal_rtc_ex.c ****   /* Check the parameters */
1304:Drivers/STM32F4xx_HAL_Driver/Src/stm32f4xx_hal_rtc_ex.c ****   assert_param(IS_RTC_CALIB_SIGN(CalibSign));
 2100              		.loc 1 1304 3 view .LVU716
1305:Drivers/STM32F4xx_HAL_Driver/Src/stm32f4xx_hal_rtc_ex.c ****   assert_param(IS_RTC_CALIB_VALUE(Value));
 2101              		.loc 1 1305 3 view .LVU717
1306:Drivers/STM32F4xx_HAL_Driver/Src/stm32f4xx_hal_rtc_ex.c **** 
1307:Drivers/STM32F4xx_HAL_Driver/Src/stm32f4xx_hal_rtc_ex.c ****   /* Process Locked */
1308:Drivers/STM32F4xx_HAL_Driver/Src/stm32f4xx_hal_rtc_ex.c ****   __HAL_LOCK(hrtc);
 2102              		.loc 1 1308 3 view .LVU718
 2103              		.loc 1 1308 3 view .LVU719
 2104 0000 037F     		ldrb	r3, [r0, #28]	@ zero_extendqisi2
 2105 0002 012B     		cmp	r3, #1
 2106 0004 25D0     		beq	.L132
1300:Drivers/STM32F4xx_HAL_Driver/Src/stm32f4xx_hal_rtc_ex.c ****   HAL_StatusTypeDef status;
 2107              		.loc 1 1300 1 is_stmt 0 discriminator 2 view .LVU720
 2108 0006 70B5     		push	{r4, r5, r6, lr}
 2109              		.cfi_def_cfa_offset 16
 2110              		.cfi_offset 4, -16
 2111              		.cfi_offset 5, -12
 2112              		.cfi_offset 6, -8
 2113              		.cfi_offset 14, -4
 2114 0008 0446     		mov	r4, r0
 2115 000a 0E46     		mov	r6, r1
 2116 000c 1546     		mov	r5, r2
 2117              		.loc 1 1308 3 is_stmt 1 discriminator 2 view .LVU721
 2118 000e 0123     		movs	r3, #1
 2119 0010 0377     		strb	r3, [r0, #28]
 2120              		.loc 1 1308 3 discriminator 2 view .LVU722
1309:Drivers/STM32F4xx_HAL_Driver/Src/stm32f4xx_hal_rtc_ex.c **** 
1310:Drivers/STM32F4xx_HAL_Driver/Src/stm32f4xx_hal_rtc_ex.c ****   hrtc->State = HAL_RTC_STATE_BUSY;
 2121              		.loc 1 1310 3 discriminator 2 view .LVU723
 2122              		.loc 1 1310 15 is_stmt 0 discriminator 2 view .LVU724
 2123 0012 0223     		movs	r3, #2
 2124 0014 4377     		strb	r3, [r0, #29]
1311:Drivers/STM32F4xx_HAL_Driver/Src/stm32f4xx_hal_rtc_ex.c **** 
1312:Drivers/STM32F4xx_HAL_Driver/Src/stm32f4xx_hal_rtc_ex.c ****   /* Disable the write protection for RTC registers */
1313:Drivers/STM32F4xx_HAL_Driver/Src/stm32f4xx_hal_rtc_ex.c ****   __HAL_RTC_WRITEPROTECTION_DISABLE(hrtc);
 2125              		.loc 1 1313 3 is_stmt 1 discriminator 2 view .LVU725
 2126              		.loc 1 1313 3 discriminator 2 view .LVU726
 2127 0016 0368     		ldr	r3, [r0]
 2128 0018 CA22     		movs	r2, #202
 2129              	.LVL146:
 2130              		.loc 1 1313 3 is_stmt 0 discriminator 2 view .LVU727
 2131 001a 5A62     		str	r2, [r3, #36]
 2132              		.loc 1 1313 3 is_stmt 1 discriminator 2 view .LVU728
 2133 001c 0368     		ldr	r3, [r0]
 2134 001e 5322     		movs	r2, #83
 2135 0020 5A62     		str	r2, [r3, #36]
 2136              		.loc 1 1313 3 discriminator 2 view .LVU729
1314:Drivers/STM32F4xx_HAL_Driver/Src/stm32f4xx_hal_rtc_ex.c **** 
1315:Drivers/STM32F4xx_HAL_Driver/Src/stm32f4xx_hal_rtc_ex.c ****   /* Enter Initialization mode */
1316:Drivers/STM32F4xx_HAL_Driver/Src/stm32f4xx_hal_rtc_ex.c ****   status = RTC_EnterInitMode(hrtc);
 2137              		.loc 1 1316 3 discriminator 2 view .LVU730
ARM GAS  /tmp/cckJJ7Hn.s 			page 63


 2138              		.loc 1 1316 12 is_stmt 0 discriminator 2 view .LVU731
 2139 0022 FFF7FEFF 		bl	RTC_EnterInitMode
 2140              	.LVL147:
1317:Drivers/STM32F4xx_HAL_Driver/Src/stm32f4xx_hal_rtc_ex.c **** 
1318:Drivers/STM32F4xx_HAL_Driver/Src/stm32f4xx_hal_rtc_ex.c ****   if (status == HAL_OK)
 2141              		.loc 1 1318 3 is_stmt 1 discriminator 2 view .LVU732
 2142              		.loc 1 1318 6 is_stmt 0 discriminator 2 view .LVU733
 2143 0026 40B1     		cbz	r0, .L137
 2144              	.LVL148:
 2145              	.L130:
1319:Drivers/STM32F4xx_HAL_Driver/Src/stm32f4xx_hal_rtc_ex.c ****   {
1320:Drivers/STM32F4xx_HAL_Driver/Src/stm32f4xx_hal_rtc_ex.c ****     /* Enable the Coarse Calibration */
1321:Drivers/STM32F4xx_HAL_Driver/Src/stm32f4xx_hal_rtc_ex.c ****     __HAL_RTC_COARSE_CALIB_ENABLE(hrtc);
1322:Drivers/STM32F4xx_HAL_Driver/Src/stm32f4xx_hal_rtc_ex.c **** 
1323:Drivers/STM32F4xx_HAL_Driver/Src/stm32f4xx_hal_rtc_ex.c ****     /* Set the coarse calibration value */
1324:Drivers/STM32F4xx_HAL_Driver/Src/stm32f4xx_hal_rtc_ex.c ****     hrtc->Instance->CALIBR = (uint32_t)(CalibSign | Value);
1325:Drivers/STM32F4xx_HAL_Driver/Src/stm32f4xx_hal_rtc_ex.c **** 
1326:Drivers/STM32F4xx_HAL_Driver/Src/stm32f4xx_hal_rtc_ex.c ****     /* Exit Initialization mode */
1327:Drivers/STM32F4xx_HAL_Driver/Src/stm32f4xx_hal_rtc_ex.c ****     status = RTC_ExitInitMode(hrtc);
1328:Drivers/STM32F4xx_HAL_Driver/Src/stm32f4xx_hal_rtc_ex.c ****   }
1329:Drivers/STM32F4xx_HAL_Driver/Src/stm32f4xx_hal_rtc_ex.c **** 
1330:Drivers/STM32F4xx_HAL_Driver/Src/stm32f4xx_hal_rtc_ex.c ****   if (status == HAL_OK)
 2146              		.loc 1 1330 3 is_stmt 1 view .LVU734
 2147              		.loc 1 1330 6 is_stmt 0 view .LVU735
 2148 0028 08B9     		cbnz	r0, .L131
1331:Drivers/STM32F4xx_HAL_Driver/Src/stm32f4xx_hal_rtc_ex.c ****   {
1332:Drivers/STM32F4xx_HAL_Driver/Src/stm32f4xx_hal_rtc_ex.c ****     hrtc->State = HAL_RTC_STATE_READY;
 2149              		.loc 1 1332 5 is_stmt 1 view .LVU736
 2150              		.loc 1 1332 17 is_stmt 0 view .LVU737
 2151 002a 0123     		movs	r3, #1
 2152 002c 6377     		strb	r3, [r4, #29]
 2153              	.L131:
1333:Drivers/STM32F4xx_HAL_Driver/Src/stm32f4xx_hal_rtc_ex.c ****   }
1334:Drivers/STM32F4xx_HAL_Driver/Src/stm32f4xx_hal_rtc_ex.c **** 
1335:Drivers/STM32F4xx_HAL_Driver/Src/stm32f4xx_hal_rtc_ex.c ****   /* Enable the write protection for RTC registers */
1336:Drivers/STM32F4xx_HAL_Driver/Src/stm32f4xx_hal_rtc_ex.c ****   __HAL_RTC_WRITEPROTECTION_ENABLE(hrtc);
 2154              		.loc 1 1336 3 is_stmt 1 view .LVU738
 2155              		.loc 1 1336 3 view .LVU739
 2156 002e 2368     		ldr	r3, [r4]
 2157 0030 FF22     		movs	r2, #255
 2158 0032 5A62     		str	r2, [r3, #36]
 2159              		.loc 1 1336 3 view .LVU740
1337:Drivers/STM32F4xx_HAL_Driver/Src/stm32f4xx_hal_rtc_ex.c **** 
1338:Drivers/STM32F4xx_HAL_Driver/Src/stm32f4xx_hal_rtc_ex.c ****   /* Process Unlocked */
1339:Drivers/STM32F4xx_HAL_Driver/Src/stm32f4xx_hal_rtc_ex.c ****   __HAL_UNLOCK(hrtc);
 2160              		.loc 1 1339 3 view .LVU741
 2161              		.loc 1 1339 3 view .LVU742
 2162 0034 0023     		movs	r3, #0
 2163 0036 2377     		strb	r3, [r4, #28]
 2164              		.loc 1 1339 3 view .LVU743
1340:Drivers/STM32F4xx_HAL_Driver/Src/stm32f4xx_hal_rtc_ex.c **** 
1341:Drivers/STM32F4xx_HAL_Driver/Src/stm32f4xx_hal_rtc_ex.c ****   return status;
 2165              		.loc 1 1341 3 view .LVU744
1342:Drivers/STM32F4xx_HAL_Driver/Src/stm32f4xx_hal_rtc_ex.c **** }
 2166              		.loc 1 1342 1 is_stmt 0 view .LVU745
 2167 0038 70BD     		pop	{r4, r5, r6, pc}
 2168              	.LVL149:
ARM GAS  /tmp/cckJJ7Hn.s 			page 64


 2169              	.L137:
1321:Drivers/STM32F4xx_HAL_Driver/Src/stm32f4xx_hal_rtc_ex.c **** 
 2170              		.loc 1 1321 5 is_stmt 1 view .LVU746
 2171 003a 2268     		ldr	r2, [r4]
 2172 003c 9368     		ldr	r3, [r2, #8]
 2173 003e 43F08003 		orr	r3, r3, #128
 2174 0042 9360     		str	r3, [r2, #8]
1324:Drivers/STM32F4xx_HAL_Driver/Src/stm32f4xx_hal_rtc_ex.c **** 
 2175              		.loc 1 1324 5 view .LVU747
1324:Drivers/STM32F4xx_HAL_Driver/Src/stm32f4xx_hal_rtc_ex.c **** 
 2176              		.loc 1 1324 9 is_stmt 0 view .LVU748
 2177 0044 2368     		ldr	r3, [r4]
1324:Drivers/STM32F4xx_HAL_Driver/Src/stm32f4xx_hal_rtc_ex.c **** 
 2178              		.loc 1 1324 51 view .LVU749
 2179 0046 3543     		orrs	r5, r5, r6
 2180              	.LVL150:
1324:Drivers/STM32F4xx_HAL_Driver/Src/stm32f4xx_hal_rtc_ex.c **** 
 2181              		.loc 1 1324 28 view .LVU750
 2182 0048 9D61     		str	r5, [r3, #24]
1327:Drivers/STM32F4xx_HAL_Driver/Src/stm32f4xx_hal_rtc_ex.c ****   }
 2183              		.loc 1 1327 5 is_stmt 1 view .LVU751
1327:Drivers/STM32F4xx_HAL_Driver/Src/stm32f4xx_hal_rtc_ex.c ****   }
 2184              		.loc 1 1327 14 is_stmt 0 view .LVU752
 2185 004a 2046     		mov	r0, r4
 2186              	.LVL151:
1327:Drivers/STM32F4xx_HAL_Driver/Src/stm32f4xx_hal_rtc_ex.c ****   }
 2187              		.loc 1 1327 14 view .LVU753
 2188 004c FFF7FEFF 		bl	RTC_ExitInitMode
 2189              	.LVL152:
1327:Drivers/STM32F4xx_HAL_Driver/Src/stm32f4xx_hal_rtc_ex.c ****   }
 2190              		.loc 1 1327 14 view .LVU754
 2191 0050 EAE7     		b	.L130
 2192              	.LVL153:
 2193              	.L132:
 2194              		.cfi_def_cfa_offset 0
 2195              		.cfi_restore 4
 2196              		.cfi_restore 5
 2197              		.cfi_restore 6
 2198              		.cfi_restore 14
1308:Drivers/STM32F4xx_HAL_Driver/Src/stm32f4xx_hal_rtc_ex.c **** 
 2199              		.loc 1 1308 3 view .LVU755
 2200 0052 0220     		movs	r0, #2
 2201              	.LVL154:
 2202              		.loc 1 1342 1 view .LVU756
 2203 0054 7047     		bx	lr
 2204              		.cfi_endproc
 2205              	.LFE151:
 2207              		.section	.text.HAL_RTCEx_DeactivateCoarseCalib,"ax",%progbits
 2208              		.align	1
 2209              		.global	HAL_RTCEx_DeactivateCoarseCalib
 2210              		.syntax unified
 2211              		.thumb
 2212              		.thumb_func
 2214              	HAL_RTCEx_DeactivateCoarseCalib:
 2215              	.LVL155:
 2216              	.LFB152:
1343:Drivers/STM32F4xx_HAL_Driver/Src/stm32f4xx_hal_rtc_ex.c **** 
ARM GAS  /tmp/cckJJ7Hn.s 			page 65


1344:Drivers/STM32F4xx_HAL_Driver/Src/stm32f4xx_hal_rtc_ex.c **** /**
1345:Drivers/STM32F4xx_HAL_Driver/Src/stm32f4xx_hal_rtc_ex.c ****   * @brief  Deactivates the Coarse calibration parameters.
1346:Drivers/STM32F4xx_HAL_Driver/Src/stm32f4xx_hal_rtc_ex.c ****   * @param  hrtc pointer to a RTC_HandleTypeDef structure that contains
1347:Drivers/STM32F4xx_HAL_Driver/Src/stm32f4xx_hal_rtc_ex.c ****   *                the configuration information for RTC.
1348:Drivers/STM32F4xx_HAL_Driver/Src/stm32f4xx_hal_rtc_ex.c ****   * @retval HAL status
1349:Drivers/STM32F4xx_HAL_Driver/Src/stm32f4xx_hal_rtc_ex.c ****   */
1350:Drivers/STM32F4xx_HAL_Driver/Src/stm32f4xx_hal_rtc_ex.c **** HAL_StatusTypeDef HAL_RTCEx_DeactivateCoarseCalib(RTC_HandleTypeDef *hrtc)
1351:Drivers/STM32F4xx_HAL_Driver/Src/stm32f4xx_hal_rtc_ex.c **** {
 2217              		.loc 1 1351 1 is_stmt 1 view -0
 2218              		.cfi_startproc
 2219              		@ args = 0, pretend = 0, frame = 0
 2220              		@ frame_needed = 0, uses_anonymous_args = 0
1352:Drivers/STM32F4xx_HAL_Driver/Src/stm32f4xx_hal_rtc_ex.c ****   HAL_StatusTypeDef status;
 2221              		.loc 1 1352 3 view .LVU758
1353:Drivers/STM32F4xx_HAL_Driver/Src/stm32f4xx_hal_rtc_ex.c **** 
1354:Drivers/STM32F4xx_HAL_Driver/Src/stm32f4xx_hal_rtc_ex.c ****   /* Process Locked */
1355:Drivers/STM32F4xx_HAL_Driver/Src/stm32f4xx_hal_rtc_ex.c ****   __HAL_LOCK(hrtc);
 2222              		.loc 1 1355 3 view .LVU759
 2223              		.loc 1 1355 3 view .LVU760
 2224 0000 037F     		ldrb	r3, [r0, #28]	@ zero_extendqisi2
 2225 0002 012B     		cmp	r3, #1
 2226 0004 20D0     		beq	.L142
1351:Drivers/STM32F4xx_HAL_Driver/Src/stm32f4xx_hal_rtc_ex.c ****   HAL_StatusTypeDef status;
 2227              		.loc 1 1351 1 is_stmt 0 discriminator 2 view .LVU761
 2228 0006 10B5     		push	{r4, lr}
 2229              		.cfi_def_cfa_offset 8
 2230              		.cfi_offset 4, -8
 2231              		.cfi_offset 14, -4
 2232 0008 0446     		mov	r4, r0
 2233              		.loc 1 1355 3 is_stmt 1 discriminator 2 view .LVU762
 2234 000a 0123     		movs	r3, #1
 2235 000c 0377     		strb	r3, [r0, #28]
 2236              		.loc 1 1355 3 discriminator 2 view .LVU763
1356:Drivers/STM32F4xx_HAL_Driver/Src/stm32f4xx_hal_rtc_ex.c **** 
1357:Drivers/STM32F4xx_HAL_Driver/Src/stm32f4xx_hal_rtc_ex.c ****   hrtc->State = HAL_RTC_STATE_BUSY;
 2237              		.loc 1 1357 3 discriminator 2 view .LVU764
 2238              		.loc 1 1357 15 is_stmt 0 discriminator 2 view .LVU765
 2239 000e 0223     		movs	r3, #2
 2240 0010 4377     		strb	r3, [r0, #29]
1358:Drivers/STM32F4xx_HAL_Driver/Src/stm32f4xx_hal_rtc_ex.c **** 
1359:Drivers/STM32F4xx_HAL_Driver/Src/stm32f4xx_hal_rtc_ex.c ****   /* Disable the write protection for RTC registers */
1360:Drivers/STM32F4xx_HAL_Driver/Src/stm32f4xx_hal_rtc_ex.c ****   __HAL_RTC_WRITEPROTECTION_DISABLE(hrtc);
 2241              		.loc 1 1360 3 is_stmt 1 discriminator 2 view .LVU766
 2242              		.loc 1 1360 3 discriminator 2 view .LVU767
 2243 0012 0368     		ldr	r3, [r0]
 2244 0014 CA22     		movs	r2, #202
 2245 0016 5A62     		str	r2, [r3, #36]
 2246              		.loc 1 1360 3 discriminator 2 view .LVU768
 2247 0018 0368     		ldr	r3, [r0]
 2248 001a 5322     		movs	r2, #83
 2249 001c 5A62     		str	r2, [r3, #36]
 2250              		.loc 1 1360 3 discriminator 2 view .LVU769
1361:Drivers/STM32F4xx_HAL_Driver/Src/stm32f4xx_hal_rtc_ex.c **** 
1362:Drivers/STM32F4xx_HAL_Driver/Src/stm32f4xx_hal_rtc_ex.c ****   /* Enter Initialization mode */
1363:Drivers/STM32F4xx_HAL_Driver/Src/stm32f4xx_hal_rtc_ex.c ****   status = RTC_EnterInitMode(hrtc);
 2251              		.loc 1 1363 3 discriminator 2 view .LVU770
 2252              		.loc 1 1363 12 is_stmt 0 discriminator 2 view .LVU771
ARM GAS  /tmp/cckJJ7Hn.s 			page 66


 2253 001e FFF7FEFF 		bl	RTC_EnterInitMode
 2254              	.LVL156:
1364:Drivers/STM32F4xx_HAL_Driver/Src/stm32f4xx_hal_rtc_ex.c **** 
1365:Drivers/STM32F4xx_HAL_Driver/Src/stm32f4xx_hal_rtc_ex.c ****   if (status == HAL_OK)
 2255              		.loc 1 1365 3 is_stmt 1 discriminator 2 view .LVU772
 2256              		.loc 1 1365 6 is_stmt 0 discriminator 2 view .LVU773
 2257 0022 40B1     		cbz	r0, .L147
 2258              	.L140:
1366:Drivers/STM32F4xx_HAL_Driver/Src/stm32f4xx_hal_rtc_ex.c ****   {
1367:Drivers/STM32F4xx_HAL_Driver/Src/stm32f4xx_hal_rtc_ex.c ****     /* Disable the Coarse Calibration */
1368:Drivers/STM32F4xx_HAL_Driver/Src/stm32f4xx_hal_rtc_ex.c ****     __HAL_RTC_COARSE_CALIB_DISABLE(hrtc);
1369:Drivers/STM32F4xx_HAL_Driver/Src/stm32f4xx_hal_rtc_ex.c **** 
1370:Drivers/STM32F4xx_HAL_Driver/Src/stm32f4xx_hal_rtc_ex.c ****     /* Exit Initialization mode */
1371:Drivers/STM32F4xx_HAL_Driver/Src/stm32f4xx_hal_rtc_ex.c ****     status = RTC_ExitInitMode(hrtc);
1372:Drivers/STM32F4xx_HAL_Driver/Src/stm32f4xx_hal_rtc_ex.c ****   }
1373:Drivers/STM32F4xx_HAL_Driver/Src/stm32f4xx_hal_rtc_ex.c **** 
1374:Drivers/STM32F4xx_HAL_Driver/Src/stm32f4xx_hal_rtc_ex.c ****   if (status == HAL_OK)
 2259              		.loc 1 1374 3 is_stmt 1 view .LVU774
 2260              		.loc 1 1374 6 is_stmt 0 view .LVU775
 2261 0024 08B9     		cbnz	r0, .L141
1375:Drivers/STM32F4xx_HAL_Driver/Src/stm32f4xx_hal_rtc_ex.c ****   {
1376:Drivers/STM32F4xx_HAL_Driver/Src/stm32f4xx_hal_rtc_ex.c ****     hrtc->State = HAL_RTC_STATE_READY;
 2262              		.loc 1 1376 5 is_stmt 1 view .LVU776
 2263              		.loc 1 1376 17 is_stmt 0 view .LVU777
 2264 0026 0123     		movs	r3, #1
 2265 0028 6377     		strb	r3, [r4, #29]
 2266              	.L141:
1377:Drivers/STM32F4xx_HAL_Driver/Src/stm32f4xx_hal_rtc_ex.c ****   }
1378:Drivers/STM32F4xx_HAL_Driver/Src/stm32f4xx_hal_rtc_ex.c **** 
1379:Drivers/STM32F4xx_HAL_Driver/Src/stm32f4xx_hal_rtc_ex.c ****   /* Enable the write protection for RTC registers */
1380:Drivers/STM32F4xx_HAL_Driver/Src/stm32f4xx_hal_rtc_ex.c ****   __HAL_RTC_WRITEPROTECTION_ENABLE(hrtc);
 2267              		.loc 1 1380 3 is_stmt 1 view .LVU778
 2268              		.loc 1 1380 3 view .LVU779
 2269 002a 2368     		ldr	r3, [r4]
 2270 002c FF22     		movs	r2, #255
 2271 002e 5A62     		str	r2, [r3, #36]
 2272              		.loc 1 1380 3 view .LVU780
1381:Drivers/STM32F4xx_HAL_Driver/Src/stm32f4xx_hal_rtc_ex.c **** 
1382:Drivers/STM32F4xx_HAL_Driver/Src/stm32f4xx_hal_rtc_ex.c ****   /* Process Unlocked */
1383:Drivers/STM32F4xx_HAL_Driver/Src/stm32f4xx_hal_rtc_ex.c ****   __HAL_UNLOCK(hrtc);
 2273              		.loc 1 1383 3 view .LVU781
 2274              		.loc 1 1383 3 view .LVU782
 2275 0030 0023     		movs	r3, #0
 2276 0032 2377     		strb	r3, [r4, #28]
 2277              		.loc 1 1383 3 view .LVU783
1384:Drivers/STM32F4xx_HAL_Driver/Src/stm32f4xx_hal_rtc_ex.c **** 
1385:Drivers/STM32F4xx_HAL_Driver/Src/stm32f4xx_hal_rtc_ex.c ****   return status;
 2278              		.loc 1 1385 3 view .LVU784
1386:Drivers/STM32F4xx_HAL_Driver/Src/stm32f4xx_hal_rtc_ex.c **** }
 2279              		.loc 1 1386 1 is_stmt 0 view .LVU785
 2280 0034 10BD     		pop	{r4, pc}
 2281              	.LVL157:
 2282              	.L147:
1368:Drivers/STM32F4xx_HAL_Driver/Src/stm32f4xx_hal_rtc_ex.c **** 
 2283              		.loc 1 1368 5 is_stmt 1 view .LVU786
 2284 0036 2268     		ldr	r2, [r4]
 2285 0038 9368     		ldr	r3, [r2, #8]
ARM GAS  /tmp/cckJJ7Hn.s 			page 67


 2286 003a 23F08003 		bic	r3, r3, #128
 2287 003e 9360     		str	r3, [r2, #8]
1371:Drivers/STM32F4xx_HAL_Driver/Src/stm32f4xx_hal_rtc_ex.c ****   }
 2288              		.loc 1 1371 5 view .LVU787
1371:Drivers/STM32F4xx_HAL_Driver/Src/stm32f4xx_hal_rtc_ex.c ****   }
 2289              		.loc 1 1371 14 is_stmt 0 view .LVU788
 2290 0040 2046     		mov	r0, r4
